---
triple:          'arm64-apple-darwin'
binary-path:     "/Users/matheart/Desktop/code/NEUQ-ACM-Weekly/202412689-孟靖凯/C,C++文件/520钻石争霸赛/output/5"
relocations:
  - { offset: 0xC6B6, size: 0x8, addend: 0x0, symName: __ZStL8__ioinit, symObjAddr: 0x5EFA7, symBinAddr: 0x10000C000, symSize: 0x0 }
  - { offset: 0xCF77, size: 0x8, addend: 0x0, symName: __ZNSt11__copy_moveILb0ELb0ESt26random_access_iterator_tagE12__assign_oneIiKiEEvPT_PT0_, symObjAddr: 0x3408, symBinAddr: 0x100004688, symSize: 0x28 }
  - { offset: 0xCFC1, size: 0x8, addend: 0x0, symName: __ZNSt11__copy_moveILb0ELb1ESt26random_access_iterator_tagE8__copy_mIKiiEEPT0_PT_S7_S5_, symObjAddr: 0x3378, symBinAddr: 0x1000045F8, symSize: 0x90 }
  - { offset: 0xD02B, size: 0x8, addend: 0x0, symName: __ZSt14__copy_move_a2ILb0EPKiPiET1_T0_S4_S3_, symObjAddr: 0x334C, symBinAddr: 0x1000045CC, symSize: 0x2C }
  - { offset: 0xD093, size: 0x8, addend: 0x0, symName: __ZNK9__gnu_cxx17__normal_iteratorIPKiSt6vectorIiSaIiEEE4baseEv, symObjAddr: 0x3338, symBinAddr: 0x1000045B8, symSize: 0x14 }
  - { offset: 0xD0B7, size: 0x8, addend: 0x0, symName: __ZSt12__niter_wrapIPiET_RKS1_S1_, symObjAddr: 0x3320, symBinAddr: 0x1000045A0, symSize: 0x18 }
  - { offset: 0xD0F0, size: 0x8, addend: 0x0, symName: __ZSt14__copy_move_a1ILb0EPKiPiET1_T0_S4_S3_, symObjAddr: 0x32F4, symBinAddr: 0x100004574, symSize: 0x2C }
  - { offset: 0xD154, size: 0x8, addend: 0x0, symName: __ZSt12__niter_baseIPiET_S1_, symObjAddr: 0x32E0, symBinAddr: 0x100004560, symSize: 0x14 }
  - { offset: 0xD185, size: 0x8, addend: 0x0, symName: __ZSt12__niter_baseIPKiSt6vectorIiSaIiEEET_N9__gnu_cxx17__normal_iteratorIS5_T0_EE, symObjAddr: 0x32C0, symBinAddr: 0x100004540, symSize: 0x20 }
  - { offset: 0xD1BF, size: 0x8, addend: 0x0, symName: __ZSt13__copy_move_aILb0EN9__gnu_cxx17__normal_iteratorIPKiSt6vectorIiSaIiEEEEPiET1_T0_SA_S9_, symObjAddr: 0x3260, symBinAddr: 0x1000044E0, symSize: 0x60 }
  - { offset: 0xD223, size: 0x8, addend: 0x0, symName: __ZSt12__miter_baseIN9__gnu_cxx17__normal_iteratorIPKiSt6vectorIiSaIiEEEEET_S8_, symObjAddr: 0x324C, symBinAddr: 0x1000044CC, symSize: 0x14 }
  - { offset: 0xD254, size: 0x8, addend: 0x0, symName: __ZNSt10_Head_baseILm0ERKiLb0EE7_M_headERS2_, symObjAddr: 0x3234, symBinAddr: 0x1000044B4, symSize: 0x18 }
  - { offset: 0xD27B, size: 0x8, addend: 0x0, symName: __ZSt4copyIN9__gnu_cxx17__normal_iteratorIPKiSt6vectorIiSaIiEEEEPiET0_T_SA_S9_, symObjAddr: 0x31EC, symBinAddr: 0x10000446C, symSize: 0x48 }
  - { offset: 0xD2D5, size: 0x8, addend: 0x0, symName: __ZNSt11_Tuple_implILm0EJRKiEE7_M_headERS2_, symObjAddr: 0x31D0, symBinAddr: 0x100004450, symSize: 0x1C }
  - { offset: 0xD2FD, size: 0x8, addend: 0x0, symName: __ZNSt20__uninitialized_copyILb1EE13__uninit_copyIN9__gnu_cxx17__normal_iteratorIPKiSt6vectorIiSaIiEEEEPiEET0_T_SC_SB_, symObjAddr: 0x31A4, symBinAddr: 0x100004424, symSize: 0x2C }
  - { offset: 0xD354, size: 0x8, addend: 0x0, symName: __ZSt12__get_helperILm0ERKiJEERT0_RSt11_Tuple_implIXT_EJS2_DpT1_EE, symObjAddr: 0x3188, symBinAddr: 0x100004408, symSize: 0x1C }
  - { offset: 0xD394, size: 0x8, addend: 0x0, symName: __ZSt18uninitialized_copyIN9__gnu_cxx17__normal_iteratorIPKiSt6vectorIiSaIiEEEEPiET0_T_SA_S9_, symObjAddr: 0x314C, symBinAddr: 0x1000043CC, symSize: 0x3C }
  - { offset: 0xD438, size: 0x8, addend: 0x0, symName: __ZN9__gnu_cxx17__normal_iteratorIPKiSt6vectorIiSaIiEEEC1ERKS2_, symObjAddr: 0x3124, symBinAddr: 0x1000043A4, symSize: 0x28 }
  - { offset: 0xD4A9, size: 0x8, addend: 0x0, symName: __ZNSt4pairIiiEC1IiiLb1EEEv, symObjAddr: 0x3100, symBinAddr: 0x100004380, symSize: 0x24 }
  - { offset: 0xD4E2, size: 0x8, addend: 0x0, symName: __ZSt7forwardIRKiEOT_RNSt16remove_referenceIS2_E4typeE, symObjAddr: 0x30EC, symBinAddr: 0x10000436C, symSize: 0x14 }
  - { offset: 0xD512, size: 0x8, addend: 0x0, symName: __ZSt3getILm0EJRKiEERNSt13tuple_elementIXT_ESt5tupleIJDpT0_EEE4typeERS6_, symObjAddr: 0x30D0, symBinAddr: 0x100004350, symSize: 0x1C }
  - { offset: 0xD54F, size: 0x8, addend: 0x0, symName: __ZSt22__uninitialized_copy_aIN9__gnu_cxx17__normal_iteratorIPKiSt6vectorIiSaIiEEEEPiiET0_T_SA_S9_RSaIT1_E, symObjAddr: 0x30A0, symBinAddr: 0x100004320, symSize: 0x30 }
  - { offset: 0xD5BE, size: 0x8, addend: 0x0, symName: __ZNKSt6vectorIiSaIiEE3endEv, symObjAddr: 0x3078, symBinAddr: 0x1000042F8, symSize: 0x28 }
  - { offset: 0xD5E6, size: 0x8, addend: 0x0, symName: __ZNKSt6vectorIiSaIiEE5beginEv, symObjAddr: 0x3054, symBinAddr: 0x1000042D4, symSize: 0x24 }
  - { offset: 0xD623, size: 0x8, addend: 0x0, symName: __ZNKSt12_Vector_baseIiSaIiEE19_M_get_Tp_allocatorEv, symObjAddr: 0x3040, symBinAddr: 0x1000042C0, symSize: 0x14 }
  - { offset: 0xD64B, size: 0x8, addend: 0x0, symName: __ZNKSt6vectorIiSaIiEE4sizeEv, symObjAddr: 0x3018, symBinAddr: 0x100004298, symSize: 0x28 }
  - { offset: 0xD66F, size: 0x8, addend: 0x0, symName: __ZSt9__fill_a1IPiiEN9__gnu_cxx11__enable_ifIXsrSt11__is_scalarIT0_E7__valueEvE6__typeET_S8_RKS4_, symObjAddr: 0x2FC0, symBinAddr: 0x100004240, symSize: 0x58 }
  - { offset: 0xD6DD, size: 0x8, addend: 0x0, symName: __ZNSt15__new_allocatorIPNSt8__detail15_Hash_node_baseEE8allocateEmPKv, symObjAddr: 0x2F44, symBinAddr: 0x1000041C4, symSize: 0x7C }
  - { offset: 0xD7CF, size: 0x8, addend: 0x0, symName: __ZNSt4pairIKiS_IiiEEC1IJRS0_EJLm0EEJEJEEERSt5tupleIJDpT_EERS5_IJDpT1_EESt12_Index_tupleIJXspT0_EEESE_IJXspT2_EEE, symObjAddr: 0x2EF8, symBinAddr: 0x100004178, symSize: 0x4C }
  - { offset: 0xD86A, size: 0x8, addend: 0x0, symName: __ZNSt6vectorIiSaIiEEC1ERKS1_, symObjAddr: 0x2DE4, symBinAddr: 0x100004064, symSize: 0x114 }
  - { offset: 0xD97E, size: 0x8, addend: 0x0, symName: __ZSt7forwardIRKSt6vectorIiSaIiEEEOT_RNSt16remove_referenceIS5_E4typeE, symObjAddr: 0x2DD0, symBinAddr: 0x100004050, symSize: 0x14 }
  - { offset: 0xD9AE, size: 0x8, addend: 0x0, symName: __ZSt8__fill_aIPiiEvT_S1_RKT0_, symObjAddr: 0x2DA0, symBinAddr: 0x100004020, symSize: 0x30 }
  - { offset: 0xDA08, size: 0x8, addend: 0x0, symName: __ZSt11__addressofINSt8__detail10_Hash_nodeISt4pairIKiS2_IiiEELb0EEEEPT_RS7_, symObjAddr: 0x2D8C, symBinAddr: 0x10000400C, symSize: 0x14 }
  - { offset: 0xDA41, size: 0x8, addend: 0x0, symName: __ZNK9__gnu_cxx16__aligned_bufferISt4pairIKiS1_IiiEEE7_M_addrEv, symObjAddr: 0x2D78, symBinAddr: 0x100003FF8, symSize: 0x14 }
  - { offset: 0xDA65, size: 0x8, addend: 0x0, symName: __ZSt12__to_addressIPNSt8__detail15_Hash_node_baseEEPT_S4_, symObjAddr: 0x2D64, symBinAddr: 0x100003FE4, symSize: 0x14 }
  - { offset: 0xDB09, size: 0x8, addend: 0x0, symName: __ZNSt4pairIKiS_IiiEEC1IJRS0_EJEEESt21piecewise_construct_tSt5tupleIJDpT_EES6_IJDpT0_EE, symObjAddr: 0x2D28, symBinAddr: 0x100003FA8, symSize: 0x3C }
  - { offset: 0xDB83, size: 0x8, addend: 0x0, symName: __ZNSt11_Tuple_implILm0EJRKiEEC2EOS2_, symObjAddr: 0x2D00, symBinAddr: 0x100003F80, symSize: 0x28 }
  - { offset: 0xDBAD, size: 0x8, addend: 0x0, symName: __ZSt10_ConstructISt6vectorIiSaIiEEJRKS2_EEvPT_DpOT0_, symObjAddr: 0x2C84, symBinAddr: 0x100003F04, symSize: 0x7C }
  - { offset: 0xDBF6, size: 0x8, addend: 0x0, symName: __ZSt10__fill_n_aIPimiET_S1_T0_RKT1_St26random_access_iterator_tag, symObjAddr: 0x2C20, symBinAddr: 0x100003EA0, symSize: 0x64 }
  - { offset: 0xDC77, size: 0x8, addend: 0x0, symName: __ZSt11__addressofIPNSt8__detail15_Hash_node_baseEEPT_RS3_, symObjAddr: 0x2C0C, symBinAddr: 0x100003E8C, symSize: 0x14 }
  - { offset: 0xDCA7, size: 0x8, addend: 0x0, symName: __ZSt9addressofINSt8__detail10_Hash_nodeISt4pairIKiS2_IiiEELb0EEEEPT_RS7_, symObjAddr: 0x2BF0, symBinAddr: 0x100003E70, symSize: 0x1C }
  - { offset: 0xDCDB, size: 0x8, addend: 0x0, symName: __ZNK9__gnu_cxx16__aligned_bufferISt4pairIKiS1_IiiEEE6_M_ptrEv, symObjAddr: 0x2BD4, symBinAddr: 0x100003E54, symSize: 0x1C }
  - { offset: 0xDD03, size: 0x8, addend: 0x0, symName: __ZNSt8__detail16_Hashtable_allocISaINS_10_Hash_nodeISt4pairIKiS2_IiiEELb0EEEEE19_M_allocate_bucketsEm, symObjAddr: 0x2B24, symBinAddr: 0x100003DA4, symSize: 0xB0 }
  - { offset: 0xDE24, size: 0x8, addend: 0x0, symName: __ZNSt15__new_allocatorINSt8__detail10_Hash_nodeISt4pairIKiS2_IiiEELb0EEEE10deallocateEPS6_m, symObjAddr: 0x2AE8, symBinAddr: 0x100003D68, symSize: 0x3C }
  - { offset: 0xDEEC, size: 0x8, addend: 0x0, symName: __ZNSt5tupleIJRKiEEC1EOS2_, symObjAddr: 0x2AC0, symBinAddr: 0x100003D40, symSize: 0x28 }
  - { offset: 0xDF1A, size: 0x8, addend: 0x0, symName: __ZNSt15__new_allocatorINSt8__detail10_Hash_nodeISt4pairIKiS2_IiiEELb0EEEE8allocateEmPKv, symObjAddr: 0x2A30, symBinAddr: 0x100003CB0, symSize: 0x90 }
  - { offset: 0xDFA7, size: 0x8, addend: 0x0, symName: __ZN9__gnu_cxx16__aligned_bufferISt4pairIKiS1_IiiEEE7_M_addrEv, symObjAddr: 0x2A1C, symBinAddr: 0x100003C9C, symSize: 0x14 }
  - { offset: 0xDFCB, size: 0x8, addend: 0x0, symName: __ZNSt8__detail15_Hashtable_baseIiSt4pairIKiS1_IiiEENS_10_Select1stESt8equal_toIiESt4hashIiENS_18_Mod_range_hashingENS_20_Default_ranged_hashENS_17_Hashtable_traitsILb0ELb0ELb1EEEE9_S_equalsEmRKNS_21_Hash_node_code_cacheILb0EEE, symObjAddr: 0x2A04, symBinAddr: 0x100003C84, symSize: 0x18 }
  - { offset: 0xDFF3, size: 0x8, addend: 0x0, symName: __ZSt18__do_uninit_fill_nIPSt6vectorIiSaIiEEmS2_ET_S4_T0_RKT1_, symObjAddr: 0x2974, symBinAddr: 0x100003BF4, symSize: 0x90 }
  - { offset: 0xE06A, size: 0x8, addend: 0x0, symName: __ZNSt15__new_allocatorISt6vectorIiSaIiEEE8allocateEmPKv, symObjAddr: 0x28E4, symBinAddr: 0x100003B64, symSize: 0x90 }
  - { offset: 0xE0EE, size: 0x8, addend: 0x0, symName: __ZSt6fill_nIPimiET_S1_T0_RKT1_, symObjAddr: 0x289C, symBinAddr: 0x100003B1C, symSize: 0x48 }
  - { offset: 0xE172, size: 0x8, addend: 0x0, symName: __ZSt10_ConstructIiJEEvPT_DpOT0_, symObjAddr: 0x2870, symBinAddr: 0x100003AF0, symSize: 0x2C }
  - { offset: 0xE1AC, size: 0x8, addend: 0x0, symName: __ZSt11__addressofIiEPT_RS0_, symObjAddr: 0x285C, symBinAddr: 0x100003ADC, symSize: 0x14 }
  - { offset: 0xE1E0, size: 0x8, addend: 0x0, symName: __ZNSt15__new_allocatorIiE8allocateEmPKv, symObjAddr: 0x27E0, symBinAddr: 0x100003A60, symSize: 0x7C }
  - { offset: 0xE268, size: 0x8, addend: 0x0, symName: __ZNSt15__new_allocatorIPNSt8__detail15_Hash_node_baseEE10deallocateEPS2_m, symObjAddr: 0x27B0, symBinAddr: 0x100003A30, symSize: 0x30 }
  - { offset: 0xE2D3, size: 0x8, addend: 0x0, symName: __ZNSt15__new_allocatorIPNSt8__detail15_Hash_node_baseEED2Ev, symObjAddr: 0x279C, symBinAddr: 0x100003A1C, symSize: 0x14 }
  - { offset: 0xE30A, size: 0x8, addend: 0x0, symName: __ZSt9addressofIPNSt8__detail15_Hash_node_baseEEPT_RS3_, symObjAddr: 0x2780, symBinAddr: 0x100003A00, symSize: 0x1C }
  - { offset: 0xE33A, size: 0x8, addend: 0x0, symName: __ZNSt19__ptr_traits_ptr_toIPNSt8__detail10_Hash_nodeISt4pairIKiS2_IiiEELb0EEES6_Lb0EE10pointer_toERS6_, symObjAddr: 0x2764, symBinAddr: 0x1000039E4, symSize: 0x1C }
  - { offset: 0xE391, size: 0x8, addend: 0x0, symName: __ZNSt8__detail21_Hashtable_ebo_helperILi0ESaINS_10_Hash_nodeISt4pairIKiS2_IiiEELb0EEEELb1EE6_M_getEv, symObjAddr: 0x2750, symBinAddr: 0x1000039D0, symSize: 0x14 }
  - { offset: 0xE3BB, size: 0x8, addend: 0x0, symName: __ZSt7forwardIRKSt4pairIKiS0_IiiEEEOT_RNSt16remove_referenceIS6_E4typeE, symObjAddr: 0x273C, symBinAddr: 0x1000039BC, symSize: 0x14 }
  - { offset: 0xE405, size: 0x8, addend: 0x0, symName: __ZNKSt8__detail21_Hashtable_ebo_helperILi0ESt8equal_toIiELb1EE7_M_cgetEv, symObjAddr: 0x2728, symBinAddr: 0x1000039A8, symSize: 0x14 }
  - { offset: 0xE42D, size: 0x8, addend: 0x0, symName: __ZNKSt8__detail15_Hash_code_baseIiSt4pairIKiS1_IiiEENS_10_Select1stESt4hashIiENS_18_Mod_range_hashingENS_20_Default_ranged_hashELb0EE15_M_bucket_indexERKNS_16_Hash_node_valueIS4_Lb0EEEm, symObjAddr: 0x26C4, symBinAddr: 0x100003944, symSize: 0x64 }
  - { offset: 0xE4BD, size: 0x8, addend: 0x0, symName: __ZNSt10_HashtableIiSt4pairIKiS0_IiiEESaIS3_ENSt8__detail10_Select1stESt8equal_toIiESt4hashIiENS5_18_Mod_range_hashingENS5_20_Default_ranged_hashENS5_20_Prime_rehash_policyENS5_17_Hashtable_traitsILb0ELb0ELb1EEEE19_M_allocate_bucketsEm, symObjAddr: 0x266C, symBinAddr: 0x1000038EC, symSize: 0x58 }
  - { offset: 0xE4F1, size: 0x8, addend: 0x0, symName: __ZSt11__addressofINSt8__detail20_Prime_rehash_policyEEPT_RS2_, symObjAddr: 0x2658, symBinAddr: 0x1000038D8, symSize: 0x14 }
  - { offset: 0xE5AB, size: 0x8, addend: 0x0, symName: __ZSt12__to_addressINSt8__detail10_Hash_nodeISt4pairIKiS2_IiiEELb0EEEEPT_S8_, symObjAddr: 0x2644, symBinAddr: 0x1000038C4, symSize: 0x14 }
  - { offset: 0xE62B, size: 0x8, addend: 0x0, symName: __ZNSt10_Head_baseILm0ERKiLb0EEC2ES1_, symObjAddr: 0x2620, symBinAddr: 0x1000038A0, symSize: 0x24 }
  - { offset: 0xE659, size: 0x8, addend: 0x0, symName: __ZN9__gnu_cxx16__aligned_bufferISt4pairIKiS1_IiiEEE6_M_ptrEv, symObjAddr: 0x2604, symBinAddr: 0x100003884, symSize: 0x1C }
  - { offset: 0xE681, size: 0x8, addend: 0x0, symName: __ZNKSt10_HashtableIiSt4pairIKiS0_IiiEESaIS3_ENSt8__detail10_Select1stESt8equal_toIiESt4hashIiENS5_18_Mod_range_hashingENS5_20_Default_ranged_hashENS5_20_Prime_rehash_policyENS5_17_Hashtable_traitsILb0ELb0ELb1EEEE15_M_bucket_indexERKNS5_16_Hash_node_valueIS3_Lb0EEE, symObjAddr: 0x25D4, symBinAddr: 0x100003854, symSize: 0x30 }
  - { offset: 0xE6B9, size: 0x8, addend: 0x0, symName: __ZNKSt8__detail15_Hashtable_baseIiSt4pairIKiS1_IiiEENS_10_Select1stESt8equal_toIiESt4hashIiENS_18_Mod_range_hashingENS_20_Default_ranged_hashENS_17_Hashtable_traitsILb0ELb0ELb1EEEE9_M_equalsERS2_mRKNS_16_Hash_node_valueIS4_Lb0EEE, symObjAddr: 0x2574, symBinAddr: 0x1000037F4, symSize: 0x60 }
  - { offset: 0xE711, size: 0x8, addend: 0x0, symName: __ZNKSt8__detail21_Hashtable_ebo_helperILi1ESt4hashIiELb1EE7_M_cgetEv, symObjAddr: 0x2560, symBinAddr: 0x1000037E0, symSize: 0x14 }
  - { offset: 0xE735, size: 0x8, addend: 0x0, symName: __ZSt8_DestroyISt6vectorIiSaIiEEEvPT_, symObjAddr: 0x2540, symBinAddr: 0x1000037C0, symSize: 0x20 }
  - { offset: 0xE765, size: 0x8, addend: 0x0, symName: __ZSt11__addressofISt6vectorIiSaIiEEEPT_RS3_, symObjAddr: 0x252C, symBinAddr: 0x1000037AC, symSize: 0x14 }
  - { offset: 0xE795, size: 0x8, addend: 0x0, symName: __ZNSt22__uninitialized_fill_nILb0EE15__uninit_fill_nIPSt6vectorIiSaIiEEmS4_EET_S6_T0_RKT1_, symObjAddr: 0x2500, symBinAddr: 0x100003780, symSize: 0x2C }
  - { offset: 0xE7FC, size: 0x8, addend: 0x0, symName: __ZNSt15__new_allocatorISt6vectorIiSaIiEEE10deallocateEPS2_m, symObjAddr: 0x24C4, symBinAddr: 0x100003744, symSize: 0x3C }
  - { offset: 0xE878, size: 0x8, addend: 0x0, symName: __ZNSt27__uninitialized_default_n_1ILb1EE18__uninit_default_nIPimEET_S3_T0_, symObjAddr: 0x2460, symBinAddr: 0x1000036E0, symSize: 0x64 }
  - { offset: 0xE8EF, size: 0x8, addend: 0x0, symName: __ZNSt15__new_allocatorIiE10deallocateEPim, symObjAddr: 0x2430, symBinAddr: 0x1000036B0, symSize: 0x30 }
  - { offset: 0xE9E1, size: 0x8, addend: 0x0, symName: __ZNSt19__ptr_traits_ptr_toIPPNSt8__detail15_Hash_node_baseES2_Lb0EE10pointer_toERS2_, symObjAddr: 0x2414, symBinAddr: 0x100003694, symSize: 0x1C }
  - { offset: 0xEA0C, size: 0x8, addend: 0x0, symName: __ZNSt8__detail16_Hashtable_allocISaINS_10_Hash_nodeISt4pairIKiS2_IiiEELb0EEEEE22_M_deallocate_node_ptrEPS6_, symObjAddr: 0x23BC, symBinAddr: 0x10000363C, symSize: 0x58 }
  - { offset: 0xEAB7, size: 0x8, addend: 0x0, symName: __ZNSt8__detail16_Hashtable_allocISaINS_10_Hash_nodeISt4pairIKiS2_IiiEELb0EEEEE17_M_node_allocatorEv, symObjAddr: 0x23A0, symBinAddr: 0x100003620, symSize: 0x1C }
  - { offset: 0xEB08, size: 0x8, addend: 0x0, symName: __ZNSt8__detail19_Node_iterator_baseISt4pairIKiS1_IiiEELb0EEC2EPNS_10_Hash_nodeIS4_Lb0EEE, symObjAddr: 0x237C, symBinAddr: 0x1000035FC, symSize: 0x24 }
  - { offset: 0xEB36, size: 0x8, addend: 0x0, symName: __ZNKSt8equal_toIiEclERKiS2_, symObjAddr: 0x2348, symBinAddr: 0x1000035C8, symSize: 0x34 }
  - { offset: 0xEB89, size: 0x8, addend: 0x0, symName: __ZNKSt8__detail10_Select1stclIRKSt4pairIKiS2_IiiEEEEONS0_10__1st_typeIT_E4typeEOS9_, symObjAddr: 0x2328, symBinAddr: 0x1000035A8, symSize: 0x20 }
  - { offset: 0xEBDF, size: 0x8, addend: 0x0, symName: __ZNKSt8__detail15_Hashtable_baseIiSt4pairIKiS1_IiiEENS_10_Select1stESt8equal_toIiESt4hashIiENS_18_Mod_range_hashingENS_20_Default_ranged_hashENS_17_Hashtable_traitsILb0ELb0ELb1EEEE5_M_eqEv, symObjAddr: 0x230C, symBinAddr: 0x10000358C, symSize: 0x1C }
  - { offset: 0xEC04, size: 0x8, addend: 0x0, symName: __ZNSt8__detail22_Hashtable_hash_traitsISt4hashIiEE22__small_size_thresholdEv, symObjAddr: 0x2304, symBinAddr: 0x100003584, symSize: 0x8 }
  - { offset: 0xEC1F, size: 0x8, addend: 0x0, symName: __ZNSt10_HashtableIiSt4pairIKiS0_IiiEESaIS3_ENSt8__detail10_Select1stESt8equal_toIiESt4hashIiENS5_18_Mod_range_hashingENS5_20_Default_ranged_hashENS5_20_Prime_rehash_policyENS5_17_Hashtable_traitsILb0ELb0ELb1EEEE22_M_insert_bucket_beginEmPNS5_10_Hash_nodeIS3_Lb0EEE, symObjAddr: 0x21F8, symBinAddr: 0x100003478, symSize: 0x10C }
  - { offset: 0xEC67, size: 0x8, addend: 0x0, symName: __ZNKSt8__detail15_Hash_code_baseIiSt4pairIKiS1_IiiEENS_10_Select1stESt4hashIiENS_18_Mod_range_hashingENS_20_Default_ranged_hashELb0EE13_M_store_codeERNS_21_Hash_node_code_cacheILb0EEEm, symObjAddr: 0x21DC, symBinAddr: 0x10000345C, symSize: 0x1C }
  - { offset: 0xEC9F, size: 0x8, addend: 0x0, symName: __ZNSt10_HashtableIiSt4pairIKiS0_IiiEESaIS3_ENSt8__detail10_Select1stESt8equal_toIiESt4hashIiENS5_18_Mod_range_hashingENS5_20_Default_ranged_hashENS5_20_Prime_rehash_policyENS5_17_Hashtable_traitsILb0ELb0ELb1EEEE9_M_rehashEmSt17integral_constantIbLb1EE, symObjAddr: 0x2070, symBinAddr: 0x1000032F0, symSize: 0x16C }
  - { offset: 0xED68, size: 0x8, addend: 0x0, symName: __ZNSt8__detail17_RehashStateGuardINS_20_Prime_rehash_policyEED1Ev, symObjAddr: 0x202C, symBinAddr: 0x1000032AC, symSize: 0x44 }
  - { offset: 0xEDB6, size: 0x8, addend: 0x0, symName: __ZNSt8__detail17_RehashStateGuardINS_20_Prime_rehash_policyEEC1ERS1_, symObjAddr: 0x1FE8, symBinAddr: 0x100003268, symSize: 0x44 }
  - { offset: 0xEDE4, size: 0x8, addend: 0x0, symName: __ZNSt8__detail16_Hashtable_allocISaINS_10_Hash_nodeISt4pairIKiS2_IiiEELb0EEEEE16_M_allocate_nodeIJRKSt21piecewise_construct_tSt5tupleIJRS3_EESD_IJEEEEEPS6_DpOT_, symObjAddr: 0x1DFC, symBinAddr: 0x10000307C, symSize: 0x1EC }
  - { offset: 0xEFAD, size: 0x8, addend: 0x0, symName: __ZNSt8__detail10_Hash_nodeISt4pairIKiS1_IiiEELb0EEC1Ev, symObjAddr: 0x1DDC, symBinAddr: 0x10000305C, symSize: 0x20 }
  - { offset: 0xEFD4, size: 0x8, addend: 0x0, symName: __ZSt7forwardISt5tupleIJEEEOT_RNSt16remove_referenceIS2_E4typeE, symObjAddr: 0x1DC8, symBinAddr: 0x100003048, symSize: 0x14 }
  - { offset: 0xF00A, size: 0x8, addend: 0x0, symName: __ZSt7forwardISt5tupleIJRKiEEEOT_RNSt16remove_referenceIS4_E4typeE, symObjAddr: 0x1DB4, symBinAddr: 0x100003034, symSize: 0x14 }
  - { offset: 0xF040, size: 0x8, addend: 0x0, symName: __ZSt7forwardIRKSt21piecewise_construct_tEOT_RNSt16remove_referenceIS3_E4typeE, symObjAddr: 0x1DA0, symBinAddr: 0x100003020, symSize: 0x14 }
  - { offset: 0xF09D, size: 0x8, addend: 0x0, symName: __ZNSt11_Tuple_implILm0EJRKiEEC2ES1_, symObjAddr: 0x1D78, symBinAddr: 0x100002FF8, symSize: 0x28 }
  - { offset: 0xF0E1, size: 0x8, addend: 0x0, symName: __ZNKSt10_HashtableIiSt4pairIKiS0_IiiEESaIS3_ENSt8__detail10_Select1stESt8equal_toIiESt4hashIiENS5_18_Mod_range_hashingENS5_20_Default_ranged_hashENS5_20_Prime_rehash_policyENS5_17_Hashtable_traitsILb0ELb0ELb1EEEE19_M_find_before_nodeEmRS1_m, symObjAddr: 0x1C7C, symBinAddr: 0x100002EFC, symSize: 0xFC }
  - { offset: 0xF16C, size: 0x8, addend: 0x0, symName: __ZNKSt8__detail15_Hash_code_baseIiSt4pairIKiS1_IiiEENS_10_Select1stESt4hashIiENS_18_Mod_range_hashingENS_20_Default_ranged_hashELb0EE15_M_bucket_indexEmm, symObjAddr: 0x1C50, symBinAddr: 0x100002ED0, symSize: 0x2C }
  - { offset: 0xF1B4, size: 0x8, addend: 0x0, symName: __ZNKSt8__detail15_Hash_code_baseIiSt4pairIKiS1_IiiEENS_10_Select1stESt4hashIiENS_18_Mod_range_hashingENS_20_Default_ranged_hashELb0EE7_M_hashEv, symObjAddr: 0x1C34, symBinAddr: 0x100002EB4, symSize: 0x1C }
  - { offset: 0xF1D8, size: 0x8, addend: 0x0, symName: __ZNSt12_Destroy_auxILb0EE9__destroyIPSt6vectorIiSaIiEEEEvT_S6_, symObjAddr: 0x1BE8, symBinAddr: 0x100002E68, symSize: 0x4C }
  - { offset: 0xF217, size: 0x8, addend: 0x0, symName: __ZSt20uninitialized_fill_nIPSt6vectorIiSaIiEEmS2_ET_S4_T0_RKT1_, symObjAddr: 0x1BB8, symBinAddr: 0x100002E38, symSize: 0x30 }
  - { offset: 0xF2C0, size: 0x8, addend: 0x0, symName: __ZNSt12_Vector_baseISt6vectorIiSaIiEESaIS2_EE11_M_allocateEm, symObjAddr: 0x1B68, symBinAddr: 0x100002DE8, symSize: 0x50 }
  - { offset: 0xF340, size: 0x8, addend: 0x0, symName: __ZNSt12_Vector_baseISt6vectorIiSaIiEESaIS2_EE17_Vector_impl_dataC2Ev, symObjAddr: 0x1B3C, symBinAddr: 0x100002DBC, symSize: 0x2C }
  - { offset: 0xF392, size: 0x8, addend: 0x0, symName: __ZNSt12_Destroy_auxILb1EE9__destroyIPiEEvT_S3_, symObjAddr: 0x1B24, symBinAddr: 0x100002DA4, symSize: 0x18 }
  - { offset: 0xF3C3, size: 0x8, addend: 0x0, symName: __ZSt25__uninitialized_default_nIPimET_S1_T0_, symObjAddr: 0x1AF8, symBinAddr: 0x100002D78, symSize: 0x2C }
  - { offset: 0xF454, size: 0x8, addend: 0x0, symName: __ZNSt12_Vector_baseIiSaIiEE11_M_allocateEm, symObjAddr: 0x1AA8, symBinAddr: 0x100002D28, symSize: 0x50 }
  - { offset: 0xF4D4, size: 0x8, addend: 0x0, symName: __ZNSt12_Vector_baseIiSaIiEE17_Vector_impl_dataC2Ev, symObjAddr: 0x1A7C, symBinAddr: 0x100002CFC, symSize: 0x2C }
  - { offset: 0xF52A, size: 0x8, addend: 0x0, symName: __ZNSt8__detail16_Hashtable_allocISaINS_10_Hash_nodeISt4pairIKiS2_IiiEELb0EEEEE21_M_deallocate_bucketsEPPNS_15_Hash_node_baseEm, symObjAddr: 0x1A04, symBinAddr: 0x100002C84, symSize: 0x78 }
  - { offset: 0xF634, size: 0x8, addend: 0x0, symName: __ZNKSt10_HashtableIiSt4pairIKiS0_IiiEESaIS3_ENSt8__detail10_Select1stESt8equal_toIiESt4hashIiENS5_18_Mod_range_hashingENS5_20_Default_ranged_hashENS5_20_Prime_rehash_policyENS5_17_Hashtable_traitsILb0ELb0ELb1EEEE21_M_uses_single_bucketEPPNS5_15_Hash_node_baseE, symObjAddr: 0x19C8, symBinAddr: 0x100002C48, symSize: 0x3C }
  - { offset: 0xF66C, size: 0x8, addend: 0x0, symName: __ZNSt8__detail16_Hashtable_allocISaINS_10_Hash_nodeISt4pairIKiS2_IiiEELb0EEEEE18_M_deallocate_nodeEPS6_, symObjAddr: 0x1954, symBinAddr: 0x100002BD4, symSize: 0x74 }
  - { offset: 0xF74B, size: 0x8, addend: 0x0, symName: __ZNSt8__detail14_Node_iteratorISt4pairIKiS1_IiiEELb0ELb0EEC1EPNS_10_Hash_nodeIS4_Lb0EEE, symObjAddr: 0x192C, symBinAddr: 0x100002BAC, symSize: 0x28 }
  - { offset: 0xF779, size: 0x8, addend: 0x0, symName: __ZNKSt8__detail15_Hashtable_baseIiSt4pairIKiS1_IiiEENS_10_Select1stESt8equal_toIiESt4hashIiENS_18_Mod_range_hashingENS_20_Default_ranged_hashENS_17_Hashtable_traitsILb0ELb0ELb1EEEE13_M_key_equalsERS2_RKNS_16_Hash_node_valueIS4_Lb0EEE, symObjAddr: 0x18C0, symBinAddr: 0x100002B40, symSize: 0x6C }
  - { offset: 0xF809, size: 0x8, addend: 0x0, symName: __ZNKSt8__detail10_Hash_nodeISt4pairIKiS1_IiiEELb0EE7_M_nextEv, symObjAddr: 0x18A8, symBinAddr: 0x100002B28, symSize: 0x18 }
  - { offset: 0xF82E, size: 0x8, addend: 0x0, symName: __ZNSt10_HashtableIiSt4pairIKiS0_IiiEESaIS3_ENSt8__detail10_Select1stESt8equal_toIiESt4hashIiENS5_18_Mod_range_hashingENS5_20_Default_ranged_hashENS5_20_Prime_rehash_policyENS5_17_Hashtable_traitsILb0ELb0ELb1EEEE22__small_size_thresholdEv, symObjAddr: 0x1894, symBinAddr: 0x100002B14, symSize: 0x14 }
  - { offset: 0xF849, size: 0x8, addend: 0x0, symName: __ZNKSt10_HashtableIiSt4pairIKiS0_IiiEESaIS3_ENSt8__detail10_Select1stESt8equal_toIiESt4hashIiENS5_18_Mod_range_hashingENS5_20_Default_ranged_hashENS5_20_Prime_rehash_policyENS5_17_Hashtable_traitsILb0ELb0ELb1EEEE4sizeEv, symObjAddr: 0x187C, symBinAddr: 0x100002AFC, symSize: 0x18 }
  - { offset: 0xF871, size: 0x8, addend: 0x0, symName: __ZNKSt8__detail14_Node_iteratorISt4pairIKiS1_IiiEELb0ELb0EEptEv, symObjAddr: 0x184C, symBinAddr: 0x100002ACC, symSize: 0x30 }
  - { offset: 0xF8BD, size: 0x8, addend: 0x0, symName: __ZNSt10_HashtableIiSt4pairIKiS0_IiiEESaIS3_ENSt8__detail10_Select1stESt8equal_toIiESt4hashIiENS5_18_Mod_range_hashingENS5_20_Default_ranged_hashENS5_20_Prime_rehash_policyENS5_17_Hashtable_traitsILb0ELb0ELb1EEEE21_M_insert_unique_nodeEmmPNS5_10_Hash_nodeIS3_Lb0EEEm, symObjAddr: 0x173C, symBinAddr: 0x1000029BC, symSize: 0x110 }
  - { offset: 0xF96D, size: 0x8, addend: 0x0, symName: __ZNSt10_HashtableIiSt4pairIKiS0_IiiEESaIS3_ENSt8__detail10_Select1stESt8equal_toIiESt4hashIiENS5_18_Mod_range_hashingENS5_20_Default_ranged_hashENS5_20_Prime_rehash_policyENS5_17_Hashtable_traitsILb0ELb0ELb1EEEE12_Scoped_nodeD1Ev, symObjAddr: 0x16F8, symBinAddr: 0x100002978, symSize: 0x44 }
  - { offset: 0xF9E6, size: 0x8, addend: 0x0, symName: __ZNSt10_HashtableIiSt4pairIKiS0_IiiEESaIS3_ENSt8__detail10_Select1stESt8equal_toIiESt4hashIiENS5_18_Mod_range_hashingENS5_20_Default_ranged_hashENS5_20_Prime_rehash_policyENS5_17_Hashtable_traitsILb0ELb0ELb1EEEE12_Scoped_nodeC1IJRKSt21piecewise_construct_tSt5tupleIJRS1_EESM_IJEEEEEPNS5_16_Hashtable_allocISaINS5_10_Hash_nodeIS3_Lb0EEEEEEDpOT_, symObjAddr: 0x1670, symBinAddr: 0x1000028F0, symSize: 0x88 }
  - { offset: 0xFA7E, size: 0x8, addend: 0x0, symName: __ZNSt5tupleIJRKiEEC1ILb1ELb1EEES1_, symObjAddr: 0x1648, symBinAddr: 0x1000028C8, symSize: 0x28 }
  - { offset: 0xFACC, size: 0x8, addend: 0x0, symName: __ZNKSt10_HashtableIiSt4pairIKiS0_IiiEESaIS3_ENSt8__detail10_Select1stESt8equal_toIiESt4hashIiENS5_18_Mod_range_hashingENS5_20_Default_ranged_hashENS5_20_Prime_rehash_policyENS5_17_Hashtable_traitsILb0ELb0ELb1EEEE12_M_find_nodeEmRS1_m, symObjAddr: 0x15F4, symBinAddr: 0x100002874, symSize: 0x54 }
  - { offset: 0xFB34, size: 0x8, addend: 0x0, symName: __ZNKSt10_HashtableIiSt4pairIKiS0_IiiEESaIS3_ENSt8__detail10_Select1stESt8equal_toIiESt4hashIiENS5_18_Mod_range_hashingENS5_20_Default_ranged_hashENS5_20_Prime_rehash_policyENS5_17_Hashtable_traitsILb0ELb0ELb1EEEE15_M_bucket_indexEm, symObjAddr: 0x15C4, symBinAddr: 0x100002844, symSize: 0x30 }
  - { offset: 0xFB6C, size: 0x8, addend: 0x0, symName: __ZNKSt8__detail15_Hash_code_baseIiSt4pairIKiS1_IiiEENS_10_Select1stESt4hashIiENS_18_Mod_range_hashingENS_20_Default_ranged_hashELb0EE12_M_hash_codeERS2_, symObjAddr: 0x158C, symBinAddr: 0x10000280C, symSize: 0x38 }
  - { offset: 0xFBA0, size: 0x8, addend: 0x0, symName: __ZSt8_DestroyIPSt6vectorIiSaIiEEEvT_S4_, symObjAddr: 0x1564, symBinAddr: 0x1000027E4, symSize: 0x28 }
  - { offset: 0xFBDF, size: 0x8, addend: 0x0, symName: __ZSt24__uninitialized_fill_n_aIPSt6vectorIiSaIiEEmS2_S2_ET_S4_T0_RKT1_RSaIT2_E, symObjAddr: 0x1534, symBinAddr: 0x1000027B4, symSize: 0x30 }
  - { offset: 0xFC57, size: 0x8, addend: 0x0, symName: __ZNSt12_Vector_baseISt6vectorIiSaIiEESaIS2_EE13_M_deallocateEPS2_m, symObjAddr: 0x14DC, symBinAddr: 0x10000275C, symSize: 0x58 }
  - { offset: 0xFCD5, size: 0x8, addend: 0x0, symName: __ZNSt12_Vector_baseISt6vectorIiSaIiEESaIS2_EE17_M_create_storageEm, symObjAddr: 0x1470, symBinAddr: 0x1000026F0, symSize: 0x6C }
  - { offset: 0xFD35, size: 0x8, addend: 0x0, symName: __ZNSt12_Vector_baseISt6vectorIiSaIiEESaIS2_EE12_Vector_implC1ERKS3_, symObjAddr: 0x1424, symBinAddr: 0x1000026A4, symSize: 0x4C }
  - { offset: 0xFDDA, size: 0x8, addend: 0x0, symName: __ZNSt6vectorIS_IiSaIiEESaIS1_EE11_S_max_sizeERKS2_, symObjAddr: 0x13C8, symBinAddr: 0x100002648, symSize: 0x5C }
  - { offset: 0xFE8D, size: 0x8, addend: 0x0, symName: __ZSt8_DestroyIPiEvT_S1_, symObjAddr: 0x13A0, symBinAddr: 0x100002620, symSize: 0x28 }
  - { offset: 0xFECC, size: 0x8, addend: 0x0, symName: __ZSt27__uninitialized_default_n_aIPimiET_S1_T0_RSaIT1_E, symObjAddr: 0x1378, symBinAddr: 0x1000025F8, symSize: 0x28 }
  - { offset: 0xFF2B, size: 0x8, addend: 0x0, symName: __ZNSt12_Vector_baseIiSaIiEE13_M_deallocateEPim, symObjAddr: 0x1320, symBinAddr: 0x1000025A0, symSize: 0x58 }
  - { offset: 0xFFA9, size: 0x8, addend: 0x0, symName: __ZNSt12_Vector_baseIiSaIiEE17_M_create_storageEm, symObjAddr: 0x12C0, symBinAddr: 0x100002540, symSize: 0x60 }
  - { offset: 0x10009, size: 0x8, addend: 0x0, symName: __ZNSt12_Vector_baseIiSaIiEE12_Vector_implC1ERKS0_, symObjAddr: 0x1274, symBinAddr: 0x1000024F4, symSize: 0x4C }
  - { offset: 0x100AE, size: 0x8, addend: 0x0, symName: __ZNSt6vectorIiSaIiEE11_S_max_sizeERKS0_, symObjAddr: 0x1220, symBinAddr: 0x1000024A0, symSize: 0x54 }
  - { offset: 0x10165, size: 0x8, addend: 0x0, symName: __ZNSt10_HashtableIiSt4pairIKiS0_IiiEESaIS3_ENSt8__detail10_Select1stESt8equal_toIiESt4hashIiENS5_18_Mod_range_hashingENS5_20_Default_ranged_hashENS5_20_Prime_rehash_policyENS5_17_Hashtable_traitsILb0ELb0ELb1EEEE21_M_deallocate_bucketsEPPNS5_15_Hash_node_baseEm, symObjAddr: 0x11D4, symBinAddr: 0x100002454, symSize: 0x4C }
  - { offset: 0x101AD, size: 0x8, addend: 0x0, symName: __ZNSt8__detail16_Hashtable_allocISaINS_10_Hash_nodeISt4pairIKiS2_IiiEELb0EEEEE19_M_deallocate_nodesEPS6_, symObjAddr: 0x1184, symBinAddr: 0x100002404, symSize: 0x50 }
  - { offset: 0x10208, size: 0x8, addend: 0x0, symName: __ZNKSt10_HashtableIiSt4pairIKiS0_IiiEESaIS3_ENSt8__detail10_Select1stESt8equal_toIiESt4hashIiENS5_18_Mod_range_hashingENS5_20_Default_ranged_hashENS5_20_Prime_rehash_policyENS5_17_Hashtable_traitsILb0ELb0ELb1EEEE8_M_beginEv, symObjAddr: 0x116C, symBinAddr: 0x1000023EC, symSize: 0x18 }
  - { offset: 0x10246, size: 0x8, addend: 0x0, symName: __ZNSt10_HashtableIiSt4pairIKiS0_IiiEESaIS3_ENSt8__detail10_Select1stESt8equal_toIiESt4hashIiENS5_18_Mod_range_hashingENS5_20_Default_ranged_hashENS5_20_Prime_rehash_policyENS5_17_Hashtable_traitsILb0ELb0ELb1EEEE3endEv, symObjAddr: 0x1148, symBinAddr: 0x1000023C8, symSize: 0x24 }
  - { offset: 0x1026E, size: 0x8, addend: 0x0, symName: __ZNSt10_HashtableIiSt4pairIKiS0_IiiEESaIS3_ENSt8__detail10_Select1stESt8equal_toIiESt4hashIiENS5_18_Mod_range_hashingENS5_20_Default_ranged_hashENS5_20_Prime_rehash_policyENS5_17_Hashtable_traitsILb0ELb0ELb1EEEE4findERS1_, symObjAddr: 0x1050, symBinAddr: 0x1000022D0, symSize: 0xF8 }
  - { offset: 0x102EB, size: 0x8, addend: 0x0, symName: __ZSt7forwardIRiEOT_RNSt16remove_referenceIS1_E4typeE, symObjAddr: 0x103C, symBinAddr: 0x1000022BC, symSize: 0x14 }
  - { offset: 0x1031F, size: 0x8, addend: 0x0, symName: __ZNSt8__detail9_Map_baseIiSt4pairIKiS1_IiiEESaIS4_ENS_10_Select1stESt8equal_toIiESt4hashIiENS_18_Mod_range_hashingENS_20_Default_ranged_hashENS_20_Prime_rehash_policyENS_17_Hashtable_traitsILb0ELb0ELb1EEELb1EEixERS2_, symObjAddr: 0xF1C, symBinAddr: 0x10000219C, symSize: 0x120 }
  - { offset: 0x10457, size: 0x8, addend: 0x0, symName: __ZNSt12_Vector_baseISt6vectorIiSaIiEESaIS2_EE19_M_get_Tp_allocatorEv, symObjAddr: 0xF08, symBinAddr: 0x100002188, symSize: 0x14 }
  - { offset: 0x1047F, size: 0x8, addend: 0x0, symName: __ZNSt6vectorIS_IiSaIiEESaIS1_EE18_M_fill_initializeEmRKS1_, symObjAddr: 0xEB0, symBinAddr: 0x100002130, symSize: 0x58 }
  - { offset: 0x104EC, size: 0x8, addend: 0x0, symName: __ZNSt12_Vector_baseISt6vectorIiSaIiEESaIS2_EED2Ev, symObjAddr: 0xE54, symBinAddr: 0x1000020D4, symSize: 0x5C }
  - { offset: 0x10548, size: 0x8, addend: 0x0, symName: __ZNSt12_Vector_baseISt6vectorIiSaIiEESaIS2_EEC2EmRKS3_, symObjAddr: 0xE00, symBinAddr: 0x100002080, symSize: 0x54 }
  - { offset: 0x105A7, size: 0x8, addend: 0x0, symName: __ZNSt12_Vector_baseISt6vectorIiSaIiEESaIS2_EE12_Vector_implD1Ev, symObjAddr: 0xDD4, symBinAddr: 0x100002054, symSize: 0x2C }
  - { offset: 0x105EB, size: 0x8, addend: 0x0, symName: __ZNSt6vectorIS_IiSaIiEESaIS1_EE17_S_check_init_lenEmRKS2_, symObjAddr: 0xD50, symBinAddr: 0x100001FD0, symSize: 0x84 }
  - { offset: 0x106C3, size: 0x8, addend: 0x0, symName: __ZNSt15__new_allocatorISt6vectorIiSaIiEEED2Ev, symObjAddr: 0xD3C, symBinAddr: 0x100001FBC, symSize: 0x14 }
  - { offset: 0x10739, size: 0x8, addend: 0x0, symName: __ZNSt12_Vector_baseIiSaIiEE19_M_get_Tp_allocatorEv, symObjAddr: 0xD28, symBinAddr: 0x100001FA8, symSize: 0x14 }
  - { offset: 0x10761, size: 0x8, addend: 0x0, symName: __ZNSt6vectorIiSaIiEE21_M_default_initializeEm, symObjAddr: 0xCD8, symBinAddr: 0x100001F58, symSize: 0x50 }
  - { offset: 0x107BE, size: 0x8, addend: 0x0, symName: __ZNSt12_Vector_baseIiSaIiEED2Ev, symObjAddr: 0xC88, symBinAddr: 0x100001F08, symSize: 0x50 }
  - { offset: 0x1081A, size: 0x8, addend: 0x0, symName: __ZNSt12_Vector_baseIiSaIiEEC2EmRKS0_, symObjAddr: 0xC34, symBinAddr: 0x100001EB4, symSize: 0x54 }
  - { offset: 0x10879, size: 0x8, addend: 0x0, symName: __ZNSt12_Vector_baseIiSaIiEE12_Vector_implD1Ev, symObjAddr: 0xC08, symBinAddr: 0x100001E88, symSize: 0x2C }
  - { offset: 0x108BD, size: 0x8, addend: 0x0, symName: __ZNSt6vectorIiSaIiEE17_S_check_init_lenEmRKS0_, symObjAddr: 0xB84, symBinAddr: 0x100001E04, symSize: 0x84 }
  - { offset: 0x10995, size: 0x8, addend: 0x0, symName: __ZNSt15__new_allocatorIiED2Ev, symObjAddr: 0xB70, symBinAddr: 0x100001DF0, symSize: 0x14 }
  - { offset: 0x109D0, size: 0x8, addend: 0x0, symName: __ZNSt10_HashtableIiSt4pairIKiS0_IiiEESaIS3_ENSt8__detail10_Select1stESt8equal_toIiESt4hashIiENS5_18_Mod_range_hashingENS5_20_Default_ranged_hashENS5_20_Prime_rehash_policyENS5_17_Hashtable_traitsILb0ELb0ELb1EEEE21_M_deallocate_bucketsEv, symObjAddr: 0xB3C, symBinAddr: 0x100001DBC, symSize: 0x34 }
  - { offset: 0x109F8, size: 0x8, addend: 0x0, symName: __ZNSt10_HashtableIiSt4pairIKiS0_IiiEESaIS3_ENSt8__detail10_Select1stESt8equal_toIiESt4hashIiENS5_18_Mod_range_hashingENS5_20_Default_ranged_hashENS5_20_Prime_rehash_policyENS5_17_Hashtable_traitsILb0ELb0ELb1EEEE5clearEv, symObjAddr: 0xADC, symBinAddr: 0x100001D5C, symSize: 0x60 }
  - { offset: 0x10A45, size: 0x8, addend: 0x0, symName: __ZNSt15__new_allocatorINSt8__detail10_Hash_nodeISt4pairIKiS2_IiiEELb0EEEED2Ev, symObjAddr: 0xAC8, symBinAddr: 0x100001D48, symSize: 0x14 }
  - { offset: 0x10A82, size: 0x8, addend: 0x0, symName: __ZNSt8__detaileqERKNS_19_Node_iterator_baseISt4pairIKiS1_IiiEELb0EEES7_, symObjAddr: 0xA98, symBinAddr: 0x100001D18, symSize: 0x30 }
  - { offset: 0x10ABE, size: 0x8, addend: 0x0, symName: __ZNSt13unordered_mapIiSt4pairIiiESt4hashIiESt8equal_toIiESaIS0_IKiS1_EEE3endEv, symObjAddr: 0xA7C, symBinAddr: 0x100001CFC, symSize: 0x1C }
  - { offset: 0x10AE6, size: 0x8, addend: 0x0, symName: __ZNSt13unordered_mapIiSt4pairIiiESt4hashIiESt8equal_toIiESaIS0_IKiS1_EEE4findERS6_, symObjAddr: 0xA58, symBinAddr: 0x100001CD8, symSize: 0x24 }
  - { offset: 0x10B1E, size: 0x8, addend: 0x0, symName: __ZNSt4pairIiiEaSEOS0_, symObjAddr: 0xA10, symBinAddr: 0x100001C90, symSize: 0x48 }
  - { offset: 0x10B9F, size: 0x8, addend: 0x0, symName: __ZNSt4pairIiiEC1IRiS2_Lb1EEEOT_OT0_, symObjAddr: 0x9C8, symBinAddr: 0x100001C48, symSize: 0x48 }
  - { offset: 0x10BE8, size: 0x8, addend: 0x0, symName: __ZNSt13unordered_mapIiSt4pairIiiESt4hashIiESt8equal_toIiESaIS0_IKiS1_EEEixERS6_, symObjAddr: 0x9A4, symBinAddr: 0x100001C24, symSize: 0x24 }
  - { offset: 0x10C20, size: 0x8, addend: 0x0, symName: __ZNSt6vectorIiSaIiEEixEm, symObjAddr: 0x97C, symBinAddr: 0x100001BFC, symSize: 0x28 }
  - { offset: 0x10C58, size: 0x8, addend: 0x0, symName: __ZNSt6vectorIS_IiSaIiEESaIS1_EEixEm, symObjAddr: 0x948, symBinAddr: 0x100001BC8, symSize: 0x34 }
  - { offset: 0x10CB5, size: 0x8, addend: 0x0, symName: __ZNSt6vectorIS_IiSaIiEESaIS1_EED1Ev, symObjAddr: 0x8EC, symBinAddr: 0x100001B6C, symSize: 0x5C }
  - { offset: 0x10D55, size: 0x8, addend: 0x0, symName: __ZNSt6vectorIS_IiSaIiEESaIS1_EEC1EmRKS1_RKS2_, symObjAddr: 0x87C, symBinAddr: 0x100001AFC, symSize: 0x70 }
  - { offset: 0x10DF0, size: 0x8, addend: 0x0, symName: __ZNSt6vectorIiSaIiEED1Ev, symObjAddr: 0x820, symBinAddr: 0x100001AA0, symSize: 0x5C }
  - { offset: 0x10E82, size: 0x8, addend: 0x0, symName: __ZNSt6vectorIiSaIiEEC1EmRKS0_, symObjAddr: 0x7B8, symBinAddr: 0x100001A38, symSize: 0x68 }
  - { offset: 0x10F14, size: 0x8, addend: 0x0, symName: __ZNSt10_HashtableIiSt4pairIKiS0_IiiEESaIS3_ENSt8__detail10_Select1stESt8equal_toIiESt4hashIiENS5_18_Mod_range_hashingENS5_20_Default_ranged_hashENS5_20_Prime_rehash_policyENS5_17_Hashtable_traitsILb0ELb0ELb1EEEED1Ev, symObjAddr: 0x788, symBinAddr: 0x100001A08, symSize: 0x30 }
  - { offset: 0x10F74, size: 0x8, addend: 0x0, symName: __ZNSt8__detail21_Hashtable_ebo_helperILi0ESaINS_10_Hash_nodeISt4pairIKiS2_IiiEELb0EEEELb1EEC2Ev, symObjAddr: 0x75C, symBinAddr: 0x1000019DC, symSize: 0x2C }
  - { offset: 0x10FFB, size: 0x8, addend: 0x0, symName: __ZNSt8__detail21_Hashtable_ebo_helperILi0ESt8equal_toIiELb1EEC2Ev, symObjAddr: 0x748, symBinAddr: 0x1000019C8, symSize: 0x14 }
  - { offset: 0x1103B, size: 0x8, addend: 0x0, symName: __ZNSt8__detail21_Hashtable_ebo_helperILi1ESt4hashIiELb1EEC2Ev, symObjAddr: 0x734, symBinAddr: 0x1000019B4, symSize: 0x14 }
  - { offset: 0x11062, size: 0x8, addend: 0x0, symName: __ZSt7forwardIiEOT_RNSt16remove_referenceIS0_E4typeE, symObjAddr: 0x720, symBinAddr: 0x1000019A0, symSize: 0x14 }
  - { offset: 0x1109A, size: 0x8, addend: 0x0, symName: _main, symObjAddr: 0x2C8, symBinAddr: 0x100001548, symSize: 0x458 }
  - { offset: 0x11339, size: 0x8, addend: 0x0, symName: __ZNSt13unordered_mapIiSt4pairIiiESt4hashIiESt8equal_toIiESaIS0_IKiS1_EEED1Ev, symObjAddr: 0x2A8, symBinAddr: 0x100001528, symSize: 0x20 }
  - { offset: 0x11379, size: 0x8, addend: 0x0, symName: __ZNSt13unordered_mapIiSt4pairIiiESt4hashIiESt8equal_toIiESaIS0_IKiS1_EEEC1Ev, symObjAddr: 0x288, symBinAddr: 0x100001508, symSize: 0x20 }
  - { offset: 0x113B9, size: 0x8, addend: 0x0, symName: __ZNSt10_HashtableIiSt4pairIKiS0_IiiEESaIS3_ENSt8__detail10_Select1stESt8equal_toIiESt4hashIiENS5_18_Mod_range_hashingENS5_20_Default_ranged_hashENS5_20_Prime_rehash_policyENS5_17_Hashtable_traitsILb0ELb0ELb1EEEEC1Ev, symObjAddr: 0x218, symBinAddr: 0x100001498, symSize: 0x70 }
  - { offset: 0x11407, size: 0x8, addend: 0x0, symName: __ZNSt8__detail16_Hashtable_allocISaINS_10_Hash_nodeISt4pairIKiS2_IiiEELb0EEEEED2Ev, symObjAddr: 0x1F8, symBinAddr: 0x100001478, symSize: 0x20 }
  - { offset: 0x11447, size: 0x8, addend: 0x0, symName: __ZNSt8__detail16_Hashtable_allocISaINS_10_Hash_nodeISt4pairIKiS2_IiiEELb0EEEEEC2Ev, symObjAddr: 0x1D8, symBinAddr: 0x100001458, symSize: 0x20 }
  - { offset: 0x11495, size: 0x8, addend: 0x0, symName: __ZNSt8__detail21_Hashtable_ebo_helperILi0ESaINS_10_Hash_nodeISt4pairIKiS2_IiiEELb0EEEELb1EED2Ev, symObjAddr: 0x1AC, symBinAddr: 0x10000142C, symSize: 0x2C }
  - { offset: 0x114F9, size: 0x8, addend: 0x0, symName: __ZNSt8__detail15_Hashtable_baseIiSt4pairIKiS1_IiiEENS_10_Select1stESt8equal_toIiESt4hashIiENS_18_Mod_range_hashingENS_20_Default_ranged_hashENS_17_Hashtable_traitsILb0ELb0ELb1EEEEC2Ev, symObjAddr: 0x184, symBinAddr: 0x100001404, symSize: 0x28 }
  - { offset: 0x11539, size: 0x8, addend: 0x0, symName: __ZNSt8__detail15_Hash_code_baseIiSt4pairIKiS1_IiiEENS_10_Select1stESt4hashIiENS_18_Mod_range_hashingENS_20_Default_ranged_hashELb0EEC2Ev, symObjAddr: 0x164, symBinAddr: 0x1000013E4, symSize: 0x20 }
  - { offset: 0x1155A, size: 0x8, addend: 0x0, symName: __ZSt3minImERKT_S2_S2_, symObjAddr: 0x12C, symBinAddr: 0x1000013AC, symSize: 0x38 }
  - { offset: 0x1159D, size: 0x8, addend: 0x0, symName: __ZNSt8__detail20_Prime_rehash_policy8_M_resetEm, symObjAddr: 0x108, symBinAddr: 0x100001388, symSize: 0x24 }
  - { offset: 0x115D5, size: 0x8, addend: 0x0, symName: __ZNKSt8__detail20_Prime_rehash_policy8_M_stateEv, symObjAddr: 0xF0, symBinAddr: 0x100001370, symSize: 0x18 }
  - { offset: 0x11626, size: 0x8, addend: 0x0, symName: __ZNSt8__detail20_Prime_rehash_policyC1Ef, symObjAddr: 0xC4, symBinAddr: 0x100001344, symSize: 0x2C }
  - { offset: 0x11654, size: 0x8, addend: 0x0, symName: __ZNKSt8__detail18_Mod_range_hashingclEmm, symObjAddr: 0x94, symBinAddr: 0x100001314, symSize: 0x30 }
  - { offset: 0x116B7, size: 0x8, addend: 0x0, symName: __ZNSt8__detail15_Hash_node_baseC1Ev, symObjAddr: 0x78, symBinAddr: 0x1000012F8, symSize: 0x1C }
  - { offset: 0x116E1, size: 0x8, addend: 0x0, symName: __ZNSt8__detail15_Hash_node_baseC2Ev, symObjAddr: 0x5C, symBinAddr: 0x1000012DC, symSize: 0x1C }
  - { offset: 0x11706, size: 0x8, addend: 0x0, symName: __ZNKSt4hashIiEclEi, symObjAddr: 0x44, symBinAddr: 0x1000012C4, symSize: 0x18 }
  - { offset: 0x11739, size: 0x8, addend: 0x0, symName: __ZSt17__size_to_integerm, symObjAddr: 0x30, symBinAddr: 0x1000012B0, symSize: 0x14 }
  - { offset: 0x11769, size: 0x8, addend: 0x0, symName: __ZdlPvS_, symObjAddr: 0x18, symBinAddr: 0x100001298, symSize: 0x18 }
  - { offset: 0x1179D, size: 0x8, addend: 0x0, symName: __ZnwmPv, symObjAddr: 0x0, symBinAddr: 0x100001280, symSize: 0x18 }
...
