---
triple:          'arm64-apple-darwin'
binary-path:     "/Users/matheart/Desktop/code/NEUQ-ACM-Weekly/202412689-孟靖凯/C,C++文件/数织游戏/output/weaving"
relocations:
  - { offset: 0xB964, size: 0x8, addend: 0x0, symName: __ZStL8__ioinit, symObjAddr: 0x46AA5, symBinAddr: 0x100010000, symSize: 0x0 }
  - { offset: 0xC0E3, size: 0x8, addend: 0x0, symName: __ZNSt11__copy_moveILb0ELb0ESt26random_access_iterator_tagE12__assign_oneIiiEEvPT_PT0_, symObjAddr: 0x553C, symBinAddr: 0x1000073C0, symSize: 0x28 }
  - { offset: 0xC12D, size: 0x8, addend: 0x0, symName: __ZNSt11__copy_moveILb0ELb1ESt26random_access_iterator_tagE8__copy_mIiiEEPT0_PT_S6_S4_, symObjAddr: 0x54AC, symBinAddr: 0x100007330, symSize: 0x90 }
  - { offset: 0xC197, size: 0x8, addend: 0x0, symName: __ZSt14__copy_move_a2ILb0EPiS0_ET1_T0_S2_S1_, symObjAddr: 0x5480, symBinAddr: 0x100007304, symSize: 0x2C }
  - { offset: 0xC1FF, size: 0x8, addend: 0x0, symName: __ZNK9__gnu_cxx17__normal_iteratorIPiSt6vectorIiSaIiEEEplEl, symObjAddr: 0x5440, symBinAddr: 0x1000072C4, symSize: 0x40 }
  - { offset: 0xC233, size: 0x8, addend: 0x0, symName: __ZNSt11__copy_moveILb0ELb0ESt26random_access_iterator_tagE12__assign_oneIiKiEEvPT_PT0_, symObjAddr: 0x5418, symBinAddr: 0x10000729C, symSize: 0x28 }
  - { offset: 0xC27D, size: 0x8, addend: 0x0, symName: __ZNSt20__uninitialized_copyILb1EE13__uninit_copyIPiS2_EET0_T_S4_S3_, symObjAddr: 0x53EC, symBinAddr: 0x100007270, symSize: 0x2C }
  - { offset: 0xC2D4, size: 0x8, addend: 0x0, symName: __ZSt14__copy_move_a1ILb0EPiS0_ET1_T0_S2_S1_, symObjAddr: 0x53C0, symBinAddr: 0x100007244, symSize: 0x2C }
  - { offset: 0xC338, size: 0x8, addend: 0x0, symName: __ZNSt12_Destroy_auxILb1EE9__destroyIN9__gnu_cxx17__normal_iteratorIPiSt6vectorIiSaIiEEEEEEvT_S9_, symObjAddr: 0x53A8, symBinAddr: 0x10000722C, symSize: 0x18 }
  - { offset: 0xC369, size: 0x8, addend: 0x0, symName: __ZSt12__niter_wrapIN9__gnu_cxx17__normal_iteratorIPiSt6vectorIiSaIiEEEES2_ET_S7_T0_, symObjAddr: 0x5360, symBinAddr: 0x1000071E4, symSize: 0x48 }
  - { offset: 0xC3B3, size: 0x8, addend: 0x0, symName: __ZSt12__niter_baseIPiSt6vectorIiSaIiEEET_N9__gnu_cxx17__normal_iteratorIS4_T0_EE, symObjAddr: 0x5340, symBinAddr: 0x1000071C4, symSize: 0x20 }
  - { offset: 0xC3ED, size: 0x8, addend: 0x0, symName: __ZSt9__fill_a1IPiiEN9__gnu_cxx11__enable_ifIXsrSt11__is_scalarIT0_E7__valueEvE6__typeET_S8_RKS4_, symObjAddr: 0x52E8, symBinAddr: 0x10000716C, symSize: 0x58 }
  - { offset: 0xC457, size: 0x8, addend: 0x0, symName: __ZNSt11__copy_moveILb0ELb1ESt26random_access_iterator_tagE8__copy_mIKiiEEPT0_PT_S7_S5_, symObjAddr: 0x5258, symBinAddr: 0x1000070DC, symSize: 0x90 }
  - { offset: 0xC4C1, size: 0x8, addend: 0x0, symName: __ZSt18uninitialized_copyIPiS0_ET0_T_S2_S1_, symObjAddr: 0x521C, symBinAddr: 0x1000070A0, symSize: 0x3C }
  - { offset: 0xC536, size: 0x8, addend: 0x0, symName: __ZSt13__copy_move_aILb0EPiS0_ET1_T0_S2_S1_, symObjAddr: 0x51BC, symBinAddr: 0x100007040, symSize: 0x60 }
  - { offset: 0xC59A, size: 0x8, addend: 0x0, symName: __ZSt12__miter_baseIPiET_S1_, symObjAddr: 0x51A8, symBinAddr: 0x10000702C, symSize: 0x14 }
  - { offset: 0xC5CB, size: 0x8, addend: 0x0, symName: __ZSt8_DestroyIN9__gnu_cxx17__normal_iteratorIPiSt6vectorIiSaIiEEEEEvT_S7_, symObjAddr: 0x5180, symBinAddr: 0x100007004, symSize: 0x28 }
  - { offset: 0xC60A, size: 0x8, addend: 0x0, symName: __ZSt13__copy_move_aILb0EN9__gnu_cxx17__normal_iteratorIPKiSt6vectorIiSaIiEEEENS1_IPiS6_EEET1_T0_SB_SA_, symObjAddr: 0x5120, symBinAddr: 0x100006FA4, symSize: 0x60 }
  - { offset: 0xC672, size: 0x8, addend: 0x0, symName: __ZNSt6vectorIiSaIiEE15_M_erase_at_endEPi, symObjAddr: 0x5098, symBinAddr: 0x100006F1C, symSize: 0x88 }
  - { offset: 0xC6FA, size: 0x8, addend: 0x0, symName: __ZSt8__fill_aIPiiEvT_S1_RKT0_, symObjAddr: 0x5068, symBinAddr: 0x100006EEC, symSize: 0x30 }
  - { offset: 0xC754, size: 0x8, addend: 0x0, symName: __ZSt14__copy_move_a2ILb0EPKiPiET1_T0_S4_S3_, symObjAddr: 0x503C, symBinAddr: 0x100006EC0, symSize: 0x2C }
  - { offset: 0xC7B8, size: 0x8, addend: 0x0, symName: __ZSt22__uninitialized_copy_aIPiS0_iET0_T_S2_S1_RSaIT1_E, symObjAddr: 0x500C, symBinAddr: 0x100006E90, symSize: 0x30 }
  - { offset: 0xC823, size: 0x8, addend: 0x0, symName: __ZSt4copyIPiS0_ET0_T_S2_S1_, symObjAddr: 0x4FC4, symBinAddr: 0x100006E48, symSize: 0x48 }
  - { offset: 0xC8B5, size: 0x8, addend: 0x0, symName: __ZSt4copyIN9__gnu_cxx17__normal_iteratorIPKiSt6vectorIiSaIiEEEENS1_IPiS6_EEET0_T_SB_SA_, symObjAddr: 0x4F7C, symBinAddr: 0x100006E00, symSize: 0x48 }
  - { offset: 0xC913, size: 0x8, addend: 0x0, symName: __ZNSt6vectorIiSaIiEE20_M_allocate_and_copyIN9__gnu_cxx17__normal_iteratorIPKiS1_EEEEPimT_S9_, symObjAddr: 0x4EF8, symBinAddr: 0x100006D7C, symSize: 0x84 }
  - { offset: 0xC984, size: 0x8, addend: 0x0, symName: __ZNKSt6vectorIiSaIiEE8capacityEv, symObjAddr: 0x4ED0, symBinAddr: 0x100006D54, symSize: 0x28 }
  - { offset: 0xC9D6, size: 0x8, addend: 0x0, symName: __ZNSt6vectorIiSaIiEE5clearEv, symObjAddr: 0x4EA4, symBinAddr: 0x100006D28, symSize: 0x2C }
  - { offset: 0xCA11, size: 0x8, addend: 0x0, symName: __ZSt7forwardIRKSt6vectorIiSaIiEEEOT_RNSt16remove_referenceIS5_E4typeE, symObjAddr: 0x4E90, symBinAddr: 0x100006D14, symSize: 0x14 }
  - { offset: 0xCA41, size: 0x8, addend: 0x0, symName: __ZSt10__fill_n_aIPimiET_S1_T0_RKT1_St26random_access_iterator_tag, symObjAddr: 0x4E2C, symBinAddr: 0x100006CB0, symSize: 0x64 }
  - { offset: 0xCAC1, size: 0x8, addend: 0x0, symName: __ZSt12__niter_wrapIPiET_RKS1_S1_, symObjAddr: 0x4E14, symBinAddr: 0x100006C98, symSize: 0x18 }
  - { offset: 0xCAFA, size: 0x8, addend: 0x0, symName: __ZSt14__copy_move_a1ILb0EPKiPiET1_T0_S4_S3_, symObjAddr: 0x4DE8, symBinAddr: 0x100006C6C, symSize: 0x2C }
  - { offset: 0xCB5E, size: 0x8, addend: 0x0, symName: __ZSt12__niter_baseIPKiSt6vectorIiSaIiEEET_N9__gnu_cxx17__normal_iteratorIS5_T0_EE, symObjAddr: 0x4DC8, symBinAddr: 0x100006C4C, symSize: 0x20 }
  - { offset: 0xCB9E, size: 0x8, addend: 0x0, symName: __ZSt7forwardIRSt6vectorIiSaIiEEEOT_RNSt16remove_referenceIS4_E4typeE, symObjAddr: 0x4DB4, symBinAddr: 0x100006C38, symSize: 0x14 }
  - { offset: 0xCBD2, size: 0x8, addend: 0x0, symName: __ZNSt6vectorIiSaIiEEaSERKS1_, symObjAddr: 0x4A6C, symBinAddr: 0x1000068F0, symSize: 0x348 }
  - { offset: 0xCD3D, size: 0x8, addend: 0x0, symName: __ZSt11__addressofIKSt6vectorIiSaIiEEEPT_RS4_, symObjAddr: 0x4A58, symBinAddr: 0x1000068DC, symSize: 0x14 }
  - { offset: 0xCD6D, size: 0x8, addend: 0x0, symName: __ZSt10_ConstructIiJEEvPT_DpOT0_, symObjAddr: 0x4A2C, symBinAddr: 0x1000068B0, symSize: 0x2C }
  - { offset: 0xCDA7, size: 0x8, addend: 0x0, symName: __ZSt11__addressofIiEPT_RS0_, symObjAddr: 0x4A18, symBinAddr: 0x10000689C, symSize: 0x14 }
  - { offset: 0xCDD7, size: 0x8, addend: 0x0, symName: __ZSt10_ConstructISt6vectorIiSaIiEEJRKS2_EEvPT_DpOT0_, symObjAddr: 0x499C, symBinAddr: 0x100006820, symSize: 0x7C }
  - { offset: 0xCE24, size: 0x8, addend: 0x0, symName: __ZNK9__gnu_cxx17__normal_iteratorIPKSt6vectorIiSaIiEES1_IS3_SaIS3_EEEdeEv, symObjAddr: 0x4984, symBinAddr: 0x100006808, symSize: 0x18 }
  - { offset: 0xCE4C, size: 0x8, addend: 0x0, symName: __ZN9__gnu_cxx17__normal_iteratorIPKSt6vectorIiSaIiEES1_IS3_SaIS3_EEEppEv, symObjAddr: 0x495C, symBinAddr: 0x1000067E0, symSize: 0x28 }
  - { offset: 0xCE76, size: 0x8, addend: 0x0, symName: __ZN9__gnu_cxxneIPKSt6vectorIiSaIiEES1_IS3_SaIS3_EEEEbRKNS_17__normal_iteratorIT_T0_EESD_, symObjAddr: 0x4918, symBinAddr: 0x10000679C, symSize: 0x44 }
  - { offset: 0xCEC0, size: 0x8, addend: 0x0, symName: __ZSt18__do_uninit_fill_nIPSt6vectorIiSaIiEEmS2_ET_S4_T0_RKT1_, symObjAddr: 0x4888, symBinAddr: 0x10000670C, symSize: 0x90 }
  - { offset: 0xCF33, size: 0x8, addend: 0x0, symName: __ZSt6fill_nIPimiET_S1_T0_RKT1_, symObjAddr: 0x4840, symBinAddr: 0x1000066C4, symSize: 0x48 }
  - { offset: 0xCFB6, size: 0x8, addend: 0x0, symName: __ZSt13__copy_move_aILb0EN9__gnu_cxx17__normal_iteratorIPKiSt6vectorIiSaIiEEEEPiET1_T0_SA_S9_, symObjAddr: 0x47E0, symBinAddr: 0x100006664, symSize: 0x60 }
  - { offset: 0xD01A, size: 0x8, addend: 0x0, symName: __ZSt12__miter_baseIN9__gnu_cxx17__normal_iteratorIPKiSt6vectorIiSaIiEEEEET_S8_, symObjAddr: 0x47CC, symBinAddr: 0x100006650, symSize: 0x14 }
  - { offset: 0xD04B, size: 0x8, addend: 0x0, symName: __ZSt10_ConstructISt6vectorIiSaIiEEJRS2_EEvPT_DpOT0_, symObjAddr: 0x4750, symBinAddr: 0x1000065D4, symSize: 0x7C }
  - { offset: 0xD094, size: 0x8, addend: 0x0, symName: __ZNSt11__copy_moveILb0ELb0ESt26random_access_iterator_tagE8__copy_mIPSt6vectorIiSaIiEES6_EET0_T_S8_S7_, symObjAddr: 0x46D0, symBinAddr: 0x100006554, symSize: 0x80 }
  - { offset: 0xD11D, size: 0x8, addend: 0x0, symName: __ZNSt11__copy_moveILb0ELb0ESt26random_access_iterator_tagE8__copy_mIPKSt6vectorIiSaIiEEPS5_EET0_T_SA_S9_, symObjAddr: 0x4650, symBinAddr: 0x1000064D4, symSize: 0x80 }
  - { offset: 0xD1A6, size: 0x8, addend: 0x0, symName: __ZNSt27__uninitialized_default_n_1ILb1EE18__uninit_default_nIPimEET_S3_T0_, symObjAddr: 0x45EC, symBinAddr: 0x100006470, symSize: 0x64 }
  - { offset: 0xD218, size: 0x8, addend: 0x0, symName: __ZSt16__do_uninit_copyIN9__gnu_cxx17__normal_iteratorIPKSt6vectorIiSaIiEES2_IS4_SaIS4_EEEEPS4_ET0_T_SC_SB_, symObjAddr: 0x4544, symBinAddr: 0x1000063C8, symSize: 0xA8 }
  - { offset: 0xD27E, size: 0x8, addend: 0x0, symName: __ZNSt22__uninitialized_fill_nILb0EE15__uninit_fill_nIPSt6vectorIiSaIiEEmS4_EET_S6_T0_RKT1_, symObjAddr: 0x4518, symBinAddr: 0x10000639C, symSize: 0x2C }
  - { offset: 0xD2F7, size: 0x8, addend: 0x0, symName: __ZNSt22__uninitialized_fill_nILb1EE15__uninit_fill_nIPimiEET_S3_T0_RKT1_, symObjAddr: 0x44EC, symBinAddr: 0x100006370, symSize: 0x2C }
  - { offset: 0xD370, size: 0x8, addend: 0x0, symName: __ZSt4copyIN9__gnu_cxx17__normal_iteratorIPKiSt6vectorIiSaIiEEEEPiET0_T_SA_S9_, symObjAddr: 0x44A4, symBinAddr: 0x100006328, symSize: 0x48 }
  - { offset: 0xD3CE, size: 0x8, addend: 0x0, symName: __ZNSt15__new_allocatorImE8allocateEmPKv, symObjAddr: 0x4428, symBinAddr: 0x1000062AC, symSize: 0x7C }
  - { offset: 0xD454, size: 0x8, addend: 0x0, symName: __ZNSt15__new_allocatorImE10deallocateEPmm, symObjAddr: 0x43F8, symBinAddr: 0x10000627C, symSize: 0x30 }
  - { offset: 0xD4B1, size: 0x8, addend: 0x0, symName: __ZSt14__relocate_a_1IiiENSt9enable_ifIXsrSt24__is_bitwise_relocatableIT_vE5valueEPS2_E4typeES4_S4_S4_RSaIT0_E, symObjAddr: 0x4394, symBinAddr: 0x100006218, symSize: 0x64 }
  - { offset: 0xD52B, size: 0x8, addend: 0x0, symName: __ZSt12__niter_baseIPiET_S1_, symObjAddr: 0x4380, symBinAddr: 0x100006204, symSize: 0x14 }
  - { offset: 0xD560, size: 0x8, addend: 0x0, symName: __ZNSt15__new_allocatorIiE8allocateEmPKv, symObjAddr: 0x4304, symBinAddr: 0x100006188, symSize: 0x7C }
  - { offset: 0xD5E2, size: 0x8, addend: 0x0, symName: __ZSt16__do_uninit_copyIPSt6vectorIiSaIiEES3_ET0_T_S5_S4_, symObjAddr: 0x4270, symBinAddr: 0x1000060F4, symSize: 0x94 }
  - { offset: 0xD648, size: 0x8, addend: 0x0, symName: __ZSt14__copy_move_a2ILb0EPSt6vectorIiSaIiEES3_ET1_T0_S5_S4_, symObjAddr: 0x4244, symBinAddr: 0x1000060C8, symSize: 0x2C }
  - { offset: 0xD6B0, size: 0x8, addend: 0x0, symName: __ZNK9__gnu_cxx17__normal_iteratorIPSt6vectorIiSaIiEES1_IS3_SaIS3_EEEplEl, symObjAddr: 0x41F8, symBinAddr: 0x10000607C, symSize: 0x4C }
  - { offset: 0xD6E4, size: 0x8, addend: 0x0, symName: __ZSt14__copy_move_a2ILb0EPKSt6vectorIiSaIiEEPS2_ET1_T0_S7_S6_, symObjAddr: 0x41CC, symBinAddr: 0x100006050, symSize: 0x2C }
  - { offset: 0xD748, size: 0x8, addend: 0x0, symName: __ZSt8_DestroyISt6vectorIiSaIiEEEvPT_, symObjAddr: 0x41AC, symBinAddr: 0x100006030, symSize: 0x20 }
  - { offset: 0xD778, size: 0x8, addend: 0x0, symName: __ZSt11__addressofISt6vectorIiSaIiEEEPT_RS3_, symObjAddr: 0x4198, symBinAddr: 0x10000601C, symSize: 0x14 }
  - { offset: 0xD7AC, size: 0x8, addend: 0x0, symName: __ZNSt15__new_allocatorISt6vectorIiSaIiEEE8allocateEmPKv, symObjAddr: 0x4108, symBinAddr: 0x100005F8C, symSize: 0x90 }
  - { offset: 0xD82E, size: 0x8, addend: 0x0, symName: __ZSt25__uninitialized_default_nIPimET_S1_T0_, symObjAddr: 0x40DC, symBinAddr: 0x100005F60, symSize: 0x2C }
  - { offset: 0xD889, size: 0x8, addend: 0x0, symName: __ZNSt20__uninitialized_copyILb0EE13__uninit_copyIN9__gnu_cxx17__normal_iteratorIPKSt6vectorIiSaIiEES4_IS6_SaIS6_EEEEPS6_EET0_T_SE_SD_, symObjAddr: 0x40B0, symBinAddr: 0x100005F34, symSize: 0x2C }
  - { offset: 0xD8E0, size: 0x8, addend: 0x0, symName: __ZSt20uninitialized_fill_nIPSt6vectorIiSaIiEEmS2_ET_S4_T0_RKT1_, symObjAddr: 0x4080, symBinAddr: 0x100005F04, symSize: 0x30 }
  - { offset: 0xD982, size: 0x8, addend: 0x0, symName: __ZSt20uninitialized_fill_nIPimiET_S1_T0_RKT1_, symObjAddr: 0x404C, symBinAddr: 0x100005ED0, symSize: 0x34 }
  - { offset: 0xDA10, size: 0x8, addend: 0x0, symName: __ZSt3minImERKT_S2_S2_, symObjAddr: 0x4014, symBinAddr: 0x100005E98, symSize: 0x38 }
  - { offset: 0xDA63, size: 0x8, addend: 0x0, symName: __ZNSt20__uninitialized_copyILb1EE13__uninit_copyIN9__gnu_cxx17__normal_iteratorIPKiSt6vectorIiSaIiEEEEPiEET0_T_SC_SB_, symObjAddr: 0x3FE8, symBinAddr: 0x100005E6C, symSize: 0x2C }
  - { offset: 0xDADF, size: 0x8, addend: 0x0, symName: __ZNSt13_Bvector_baseISaIbEE18_Bvector_impl_data8_M_resetEv, symObjAddr: 0x3FA8, symBinAddr: 0x100005E2C, symSize: 0x40 }
  - { offset: 0xDB50, size: 0x8, addend: 0x0, symName: __ZNSt13_Bvector_baseISaIbEE18_Bvector_impl_dataC1Ev, symObjAddr: 0x3F74, symBinAddr: 0x100005DF8, symSize: 0x34 }
  - { offset: 0xDB79, size: 0x8, addend: 0x0, symName: __ZNSt13_Bvector_baseISaIbEE18_Bvector_impl_dataC2Ev, symObjAddr: 0x3F40, symBinAddr: 0x100005DC4, symSize: 0x34 }
  - { offset: 0xDBE5, size: 0x8, addend: 0x0, symName: __ZNSt15__new_allocatorImED2Ev, symObjAddr: 0x3F2C, symBinAddr: 0x100005DB0, symSize: 0x14 }
  - { offset: 0xDC1B, size: 0x8, addend: 0x0, symName: __ZSt12__relocate_aIPiS0_SaIiEET0_T_S3_S2_RT1_, symObjAddr: 0x3ED0, symBinAddr: 0x100005D54, symSize: 0x5C }
  - { offset: 0xDCB3, size: 0x8, addend: 0x0, symName: __ZNK9__gnu_cxx17__normal_iteratorIPiSt6vectorIiSaIiEEE4baseEv, symObjAddr: 0x3EBC, symBinAddr: 0x100005D40, symSize: 0x14 }
  - { offset: 0xDD03, size: 0x8, addend: 0x0, symName: __ZN9__gnu_cxx17__normal_iteratorIPiSt6vectorIiSaIiEEEC1ERKS1_, symObjAddr: 0x3E94, symBinAddr: 0x100005D18, symSize: 0x28 }
  - { offset: 0xDD2B, size: 0x8, addend: 0x0, symName: __ZSt3maxImERKT_S2_S2_, symObjAddr: 0x3E5C, symBinAddr: 0x100005CE0, symSize: 0x38 }
  - { offset: 0xDD70, size: 0x8, addend: 0x0, symName: __ZNKSt6vectorIiSaIiEE8max_sizeEv, symObjAddr: 0x3E3C, symBinAddr: 0x100005CC0, symSize: 0x20 }
  - { offset: 0xDD94, size: 0x8, addend: 0x0, symName: __ZNSt12_Destroy_auxILb1EE9__destroyIPiEEvT_S3_, symObjAddr: 0x3E24, symBinAddr: 0x100005CA8, symSize: 0x18 }
  - { offset: 0xDDC9, size: 0x8, addend: 0x0, symName: __ZNSt15__new_allocatorIiE10deallocateEPim, symObjAddr: 0x3DF4, symBinAddr: 0x100005C78, symSize: 0x30 }
  - { offset: 0xDE0B, size: 0x8, addend: 0x0, symName: __ZNSt20__uninitialized_copyILb0EE13__uninit_copyIPSt6vectorIiSaIiEES5_EET0_T_S7_S6_, symObjAddr: 0x3DC8, symBinAddr: 0x100005C4C, symSize: 0x2C }
  - { offset: 0xDE62, size: 0x8, addend: 0x0, symName: __ZSt12__niter_wrapIPSt6vectorIiSaIiEEET_RKS4_S4_, symObjAddr: 0x3DB0, symBinAddr: 0x100005C34, symSize: 0x18 }
  - { offset: 0xDE9B, size: 0x8, addend: 0x0, symName: __ZSt14__copy_move_a1ILb0EPSt6vectorIiSaIiEES3_ET1_T0_S5_S4_, symObjAddr: 0x3D84, symBinAddr: 0x100005C08, symSize: 0x2C }
  - { offset: 0xDEFF, size: 0x8, addend: 0x0, symName: __ZSt12__niter_baseIPSt6vectorIiSaIiEEET_S4_, symObjAddr: 0x3D70, symBinAddr: 0x100005BF4, symSize: 0x14 }
  - { offset: 0xDF30, size: 0x8, addend: 0x0, symName: __ZNSt12_Destroy_auxILb0EE9__destroyIN9__gnu_cxx17__normal_iteratorIPSt6vectorIiSaIiEES4_IS6_SaIS6_EEEEEEvT_SB_, symObjAddr: 0x3D1C, symBinAddr: 0x100005BA0, symSize: 0x54 }
  - { offset: 0xDF6F, size: 0x8, addend: 0x0, symName: __ZSt12__niter_wrapIN9__gnu_cxx17__normal_iteratorIPSt6vectorIiSaIiEES2_IS4_SaIS4_EEEES5_ET_S9_T0_, symObjAddr: 0x3CC8, symBinAddr: 0x100005B4C, symSize: 0x54 }
  - { offset: 0xDFB9, size: 0x8, addend: 0x0, symName: __ZSt14__copy_move_a1ILb0EPKSt6vectorIiSaIiEEPS2_ET1_T0_S7_S6_, symObjAddr: 0x3C9C, symBinAddr: 0x100005B20, symSize: 0x2C }
  - { offset: 0xE01D, size: 0x8, addend: 0x0, symName: __ZSt12__niter_baseIPSt6vectorIiSaIiEES0_IS2_SaIS2_EEET_N9__gnu_cxx17__normal_iteratorIS6_T0_EE, symObjAddr: 0x3C7C, symBinAddr: 0x100005B00, symSize: 0x20 }
  - { offset: 0xE057, size: 0x8, addend: 0x0, symName: __ZSt12__niter_baseIPKSt6vectorIiSaIiEES0_IS2_SaIS2_EEET_N9__gnu_cxx17__normal_iteratorIS7_T0_EE, symObjAddr: 0x3C5C, symBinAddr: 0x100005AE0, symSize: 0x20 }
  - { offset: 0xE091, size: 0x8, addend: 0x0, symName: __ZNSt12_Destroy_auxILb0EE9__destroyIPSt6vectorIiSaIiEEEEvT_S6_, symObjAddr: 0x3C10, symBinAddr: 0x100005A94, symSize: 0x4C }
  - { offset: 0xE0F5, size: 0x8, addend: 0x0, symName: __ZNSt15__new_allocatorISt6vectorIiSaIiEEE10deallocateEPS2_m, symObjAddr: 0x3BD4, symBinAddr: 0x100005A58, symSize: 0x3C }
  - { offset: 0xE13B, size: 0x8, addend: 0x0, symName: __ZNK9__gnu_cxx17__normal_iteratorIPKSt6vectorIiSaIiEES1_IS3_SaIS3_EEE4baseEv, symObjAddr: 0x3BC0, symBinAddr: 0x100005A44, symSize: 0x14 }
  - { offset: 0xE15F, size: 0x8, addend: 0x0, symName: __ZSt27__uninitialized_default_n_aIPimiET_S1_T0_RSaIT1_E, symObjAddr: 0x3B98, symBinAddr: 0x100005A1C, symSize: 0x28 }
  - { offset: 0xE1BA, size: 0x8, addend: 0x0, symName: __ZSt18uninitialized_copyIN9__gnu_cxx17__normal_iteratorIPKSt6vectorIiSaIiEES2_IS4_SaIS4_EEEEPS4_ET0_T_SC_SB_, symObjAddr: 0x3B64, symBinAddr: 0x1000059E8, symSize: 0x34 }
  - { offset: 0xE243, size: 0x8, addend: 0x0, symName: __ZSt24__uninitialized_fill_n_aIPSt6vectorIiSaIiEEmS2_S2_ET_S4_T0_RKT1_RSaIT2_E, symObjAddr: 0x3B34, symBinAddr: 0x1000059B8, symSize: 0x30 }
  - { offset: 0xE2BB, size: 0x8, addend: 0x0, symName: __ZNSt12_Vector_baseISt6vectorIiSaIiEESaIS2_EE17_M_create_storageEm, symObjAddr: 0x3AC8, symBinAddr: 0x10000594C, symSize: 0x6C }
  - { offset: 0xE31B, size: 0x8, addend: 0x0, symName: __ZNSt12_Vector_baseISt6vectorIiSaIiEESaIS2_EE12_Vector_implC1ERKS3_, symObjAddr: 0x3A7C, symBinAddr: 0x100005900, symSize: 0x4C }
  - { offset: 0xE3B8, size: 0x8, addend: 0x0, symName: __ZNSt6vectorIS_IiSaIiEESaIS1_EE11_S_max_sizeERKS2_, symObjAddr: 0x3A20, symBinAddr: 0x1000058A4, symSize: 0x5C }
  - { offset: 0xE465, size: 0x8, addend: 0x0, symName: __ZSt24__uninitialized_fill_n_aIPimiiET_S1_T0_RKT1_RSaIT2_E, symObjAddr: 0x39F0, symBinAddr: 0x100005874, symSize: 0x30 }
  - { offset: 0xE4FC, size: 0x8, addend: 0x0, symName: __ZNSt6vectorIiSaIiEE11_S_max_sizeERKS0_, symObjAddr: 0x399C, symBinAddr: 0x100005820, symSize: 0x54 }
  - { offset: 0xE5A9, size: 0x8, addend: 0x0, symName: __ZSt18uninitialized_copyIN9__gnu_cxx17__normal_iteratorIPKiSt6vectorIiSaIiEEEEPiET0_T_SA_S9_, symObjAddr: 0x3960, symBinAddr: 0x1000057E4, symSize: 0x3C }
  - { offset: 0xE622, size: 0x8, addend: 0x0, symName: __ZNSt12_Vector_baseIiSaIiEE17_M_create_storageEm, symObjAddr: 0x3900, symBinAddr: 0x100005784, symSize: 0x60 }
  - { offset: 0xE682, size: 0x8, addend: 0x0, symName: __ZNSt12_Vector_baseIiSaIiEE12_Vector_implC1ERKS0_, symObjAddr: 0x38B4, symBinAddr: 0x100005738, symSize: 0x4C }
  - { offset: 0xE710, size: 0x8, addend: 0x0, symName: __ZSt9__reverseISt13_Bit_iteratorEvT_S1_St26random_access_iterator_tag, symObjAddr: 0x3818, symBinAddr: 0x10000569C, symSize: 0x9C }
  - { offset: 0xE76E, size: 0x8, addend: 0x0, symName: __ZSt9iter_swapISt13_Bit_iteratorS0_EvT_T0_, symObjAddr: 0x37B0, symBinAddr: 0x100005634, symSize: 0x68 }
  - { offset: 0xE7C5, size: 0x8, addend: 0x0, symName: __ZNK9__gnu_cxx5__ops15_Iter_less_iterclISt13_Bit_iteratorS3_EEbT_T0_, symObjAddr: 0x375C, symBinAddr: 0x1000055E0, symSize: 0x54 }
  - { offset: 0xE81E, size: 0x8, addend: 0x0, symName: __ZNKSt13_Bvector_baseISaIbEE13_Bvector_impl11_M_end_addrEv, symObjAddr: 0x371C, symBinAddr: 0x1000055A0, symSize: 0x40 }
  - { offset: 0xE842, size: 0x8, addend: 0x0, symName: __ZSt11__addressofImEPT_RS0_, symObjAddr: 0x3708, symBinAddr: 0x10000558C, symSize: 0x14 }
  - { offset: 0xE872, size: 0x8, addend: 0x0, symName: __ZNSt13_Bvector_baseISaIbEE8_S_nwordEm, symObjAddr: 0x36EC, symBinAddr: 0x100005570, symSize: 0x1C }
  - { offset: 0xE89E, size: 0x8, addend: 0x0, symName: __ZNSt13_Bvector_baseISaIbEE11_M_allocateEm, symObjAddr: 0x369C, symBinAddr: 0x100005520, symSize: 0x50 }
  - { offset: 0xE910, size: 0x8, addend: 0x0, symName: __ZNSt13_Bvector_baseISaIbEE13_M_deallocateEv, symObjAddr: 0x360C, symBinAddr: 0x100005490, symSize: 0x90 }
  - { offset: 0xE9B4, size: 0x8, addend: 0x0, symName: __ZNSt13_Bvector_baseISaIbEE13_Bvector_implC1ERKSaImE, symObjAddr: 0x35C0, symBinAddr: 0x100005444, symSize: 0x4C }
  - { offset: 0xEA73, size: 0x8, addend: 0x0, symName: __ZNSt6vectorIiSaIiEE11_S_relocateEPiS2_S2_RS0_, symObjAddr: 0x358C, symBinAddr: 0x100005410, symSize: 0x34 }
  - { offset: 0xEACB, size: 0x8, addend: 0x0, symName: __ZSt12__to_addressIiEPT_S1_, symObjAddr: 0x3578, symBinAddr: 0x1000053FC, symSize: 0x14 }
  - { offset: 0xEAFF, size: 0x8, addend: 0x0, symName: __ZNSt12_Vector_baseIiSaIiEE11_M_allocateEm, symObjAddr: 0x3528, symBinAddr: 0x1000053AC, symSize: 0x50 }
  - { offset: 0xEB63, size: 0x8, addend: 0x0, symName: __ZN9__gnu_cxxmiIPiSt6vectorIiSaIiEEEENS_17__normal_iteratorIT_T0_E15difference_typeERKS8_SB_, symObjAddr: 0x34E8, symBinAddr: 0x10000536C, symSize: 0x40 }
  - { offset: 0xEBB1, size: 0x8, addend: 0x0, symName: __ZNSt6vectorIiSaIiEE5beginEv, symObjAddr: 0x34C4, symBinAddr: 0x100005348, symSize: 0x24 }
  - { offset: 0xEBD9, size: 0x8, addend: 0x0, symName: __ZNSt6vectorIiSaIiEE3endEv, symObjAddr: 0x349C, symBinAddr: 0x100005320, symSize: 0x28 }
  - { offset: 0xEC01, size: 0x8, addend: 0x0, symName: __ZNKSt6vectorIiSaIiEE12_M_check_lenEmPKc, symObjAddr: 0x33CC, symBinAddr: 0x100005250, symSize: 0xD0 }
  - { offset: 0xEC9D, size: 0x8, addend: 0x0, symName: __ZSt7forwardIRKiEOT_RNSt16remove_referenceIS2_E4typeE, symObjAddr: 0x33B8, symBinAddr: 0x10000523C, symSize: 0x14 }
  - { offset: 0xECCD, size: 0x8, addend: 0x0, symName: __ZSt8_DestroyIPiEvT_S1_, symObjAddr: 0x3390, symBinAddr: 0x100005214, symSize: 0x28 }
  - { offset: 0xED3A, size: 0x8, addend: 0x0, symName: __ZSt18uninitialized_copyIPSt6vectorIiSaIiEES3_ET0_T_S5_S4_, symObjAddr: 0x335C, symBinAddr: 0x1000051E0, symSize: 0x34 }
  - { offset: 0xEDAF, size: 0x8, addend: 0x0, symName: __ZSt13__copy_move_aILb0EPSt6vectorIiSaIiEES3_ET1_T0_S5_S4_, symObjAddr: 0x32FC, symBinAddr: 0x100005180, symSize: 0x60 }
  - { offset: 0xEE13, size: 0x8, addend: 0x0, symName: __ZSt12__miter_baseIPSt6vectorIiSaIiEEET_S4_, symObjAddr: 0x32E8, symBinAddr: 0x10000516C, symSize: 0x14 }
  - { offset: 0xEE44, size: 0x8, addend: 0x0, symName: __ZSt8_DestroyIN9__gnu_cxx17__normal_iteratorIPSt6vectorIiSaIiEES2_IS4_SaIS4_EEEEEvT_S9_, symObjAddr: 0x32C0, symBinAddr: 0x100005144, symSize: 0x28 }
  - { offset: 0xEE83, size: 0x8, addend: 0x0, symName: __ZSt13__copy_move_aILb0EN9__gnu_cxx17__normal_iteratorIPKSt6vectorIiSaIiEES2_IS4_SaIS4_EEEENS1_IPS4_S8_EEET1_T0_SD_SC_, symObjAddr: 0x3260, symBinAddr: 0x1000050E4, symSize: 0x60 }
  - { offset: 0xEEE7, size: 0x8, addend: 0x0, symName: __ZSt12__miter_baseIN9__gnu_cxx17__normal_iteratorIPKSt6vectorIiSaIiEES2_IS4_SaIS4_EEEEET_SA_, symObjAddr: 0x324C, symBinAddr: 0x1000050D0, symSize: 0x14 }
  - { offset: 0xEF18, size: 0x8, addend: 0x0, symName: __ZSt8_DestroyIPSt6vectorIiSaIiEEEvT_S4_, symObjAddr: 0x3224, symBinAddr: 0x1000050A8, symSize: 0x28 }
  - { offset: 0xEF5B, size: 0x8, addend: 0x0, symName: __ZNSt12_Vector_baseISt6vectorIiSaIiEESaIS2_EE11_M_allocateEm, symObjAddr: 0x31D4, symBinAddr: 0x100005058, symSize: 0x50 }
  - { offset: 0xEFE5, size: 0x8, addend: 0x0, symName: __ZN9__gnu_cxx17__normal_iteratorIPKSt6vectorIiSaIiEES1_IS3_SaIS3_EEEC1ERKS5_, symObjAddr: 0x31AC, symBinAddr: 0x100005030, symSize: 0x28 }
  - { offset: 0xF03F, size: 0x8, addend: 0x0, symName: __ZNSt6vectorIS_IiSaIiEESaIS1_EE15_M_erase_at_endEPS1_, symObjAddr: 0x3118, symBinAddr: 0x100004F9C, symSize: 0x94 }
  - { offset: 0xF0CB, size: 0x8, addend: 0x0, symName: __ZNK9__gnu_cxx17__normal_iteratorIPKiSt6vectorIiSaIiEEE4baseEv, symObjAddr: 0x3104, symBinAddr: 0x100004F88, symSize: 0x14 }
  - { offset: 0xF11B, size: 0x8, addend: 0x0, symName: __ZN9__gnu_cxx17__normal_iteratorIPKiSt6vectorIiSaIiEEEC1ERKS2_, symObjAddr: 0x30DC, symBinAddr: 0x100004F60, symSize: 0x28 }
  - { offset: 0xF147, size: 0x8, addend: 0x0, symName: __ZNK9__gnu_cxx17__normal_iteratorIPSt6vectorIiSaIiEES1_IS3_SaIS3_EEE4baseEv, symObjAddr: 0x30C8, symBinAddr: 0x100004F4C, symSize: 0x14 }
  - { offset: 0xF197, size: 0x8, addend: 0x0, symName: __ZN9__gnu_cxx17__normal_iteratorIPSt6vectorIiSaIiEES1_IS3_SaIS3_EEEC1ERKS4_, symObjAddr: 0x30A0, symBinAddr: 0x100004F24, symSize: 0x28 }
  - { offset: 0xF1BF, size: 0x8, addend: 0x0, symName: __ZN9__gnu_cxxeqIPKSt6vectorIiSaIiEES1_IS3_SaIS3_EEEEbRKNS_17__normal_iteratorIT_T0_EESD_, symObjAddr: 0x305C, symBinAddr: 0x100004EE0, symSize: 0x44 }
  - { offset: 0xF20D, size: 0x8, addend: 0x0, symName: __ZNSt6vectorIiSaIiEE21_M_default_initializeEm, symObjAddr: 0x300C, symBinAddr: 0x100004E90, symSize: 0x50 }
  - { offset: 0xF241, size: 0x8, addend: 0x0, symName: __ZSt22__uninitialized_copy_aIN9__gnu_cxx17__normal_iteratorIPKSt6vectorIiSaIiEES2_IS4_SaIS4_EEEEPS4_S4_ET0_T_SC_SB_RSaIT1_E, symObjAddr: 0x2FDC, symBinAddr: 0x100004E60, symSize: 0x30 }
  - { offset: 0xF2C4, size: 0x8, addend: 0x0, symName: __ZNSt6vectorIS_IiSaIiEESaIS1_EE18_M_fill_initializeEmRKS1_, symObjAddr: 0x2F84, symBinAddr: 0x100004E08, symSize: 0x58 }
  - { offset: 0xF341, size: 0x8, addend: 0x0, symName: __ZNSt12_Vector_baseISt6vectorIiSaIiEESaIS2_EEC2EmRKS3_, symObjAddr: 0x2F30, symBinAddr: 0x100004DB4, symSize: 0x54 }
  - { offset: 0xF371, size: 0x8, addend: 0x0, symName: __ZNSt6vectorIS_IiSaIiEESaIS1_EE17_S_check_init_lenEmRKS2_, symObjAddr: 0x2EAC, symBinAddr: 0x100004D30, symSize: 0x84 }
  - { offset: 0xF434, size: 0x8, addend: 0x0, symName: __ZNSt6vectorIiSaIiEE18_M_fill_initializeEmRKi, symObjAddr: 0x2E54, symBinAddr: 0x100004CD8, symSize: 0x58 }
  - { offset: 0xF478, size: 0x8, addend: 0x0, symName: __ZNSt6vectorIiSaIiEE17_S_check_init_lenEmRKS0_, symObjAddr: 0x2DD0, symBinAddr: 0x100004C54, symSize: 0x84 }
  - { offset: 0xF560, size: 0x8, addend: 0x0, symName: __ZNSt15__new_allocatorISt6vectorIiSaIiEEED2Ev, symObjAddr: 0x2DBC, symBinAddr: 0x100004C40, symSize: 0x14 }
  - { offset: 0xF59F, size: 0x8, addend: 0x0, symName: __ZNSt12_Vector_baseISt6vectorIiSaIiEESaIS2_EE17_Vector_impl_dataC2Ev, symObjAddr: 0x2D90, symBinAddr: 0x100004C14, symSize: 0x2C }
  - { offset: 0xF5BF, size: 0x8, addend: 0x0, symName: __ZSt22__uninitialized_copy_aIN9__gnu_cxx17__normal_iteratorIPKiSt6vectorIiSaIiEEEEPiiET0_T_SA_S9_RSaIT1_E, symObjAddr: 0x2D60, symBinAddr: 0x100004BE4, symSize: 0x30 }
  - { offset: 0xF663, size: 0x8, addend: 0x0, symName: __ZNSt12_Vector_baseIiSaIiEEC2EmRKS0_, symObjAddr: 0x2D0C, symBinAddr: 0x100004B90, symSize: 0x54 }
  - { offset: 0xF6AB, size: 0x8, addend: 0x0, symName: __ZNKSt12_Vector_baseIiSaIiEE19_M_get_Tp_allocatorEv, symObjAddr: 0x2CF8, symBinAddr: 0x100004B7C, symSize: 0x14 }
  - { offset: 0xF6CF, size: 0x8, addend: 0x0, symName: __ZSt18__next_permutationISt13_Bit_iteratorN9__gnu_cxx5__ops15_Iter_less_iterEEbT_S4_T0_, symObjAddr: 0x2B68, symBinAddr: 0x1000049EC, symSize: 0x190 }
  - { offset: 0xF7BF, size: 0x8, addend: 0x0, symName: __ZSt8__fill_aISt13_Bit_iteratorbEvT_S1_RKT0_, symObjAddr: 0x2B18, symBinAddr: 0x10000499C, symSize: 0x50 }
  - { offset: 0xF81D, size: 0x8, addend: 0x0, symName: __ZNSt6vectorIbSaIbEE19_M_initialize_valueEb, symObjAddr: 0x2AB4, symBinAddr: 0x100004938, symSize: 0x64 }
  - { offset: 0xF877, size: 0x8, addend: 0x0, symName: __ZNSt6vectorIbSaIbEE13_M_initializeEm, symObjAddr: 0x29FC, symBinAddr: 0x100004880, symSize: 0xB8 }
  - { offset: 0xF906, size: 0x8, addend: 0x0, symName: __ZNSt13_Bvector_baseISaIbEED2Ev, symObjAddr: 0x29D4, symBinAddr: 0x100004858, symSize: 0x28 }
  - { offset: 0xF952, size: 0x8, addend: 0x0, symName: __ZNSt13_Bvector_baseISaIbEEC2ERKS0_, symObjAddr: 0x2988, symBinAddr: 0x10000480C, symSize: 0x4C }
  - { offset: 0xFA10, size: 0x8, addend: 0x0, symName: __ZNSt13_Bvector_baseISaIbEE13_Bvector_implD1Ev, symObjAddr: 0x295C, symBinAddr: 0x1000047E0, symSize: 0x2C }
  - { offset: 0xFA7B, size: 0x8, addend: 0x0, symName: __ZNSt15__new_allocatorIbED2Ev, symObjAddr: 0x2948, symBinAddr: 0x1000047CC, symSize: 0x14 }
  - { offset: 0xFAB5, size: 0x8, addend: 0x0, symName: __ZNSt6vectorIiSaIiEE17_M_realloc_appendIJRKiEEEvDpOT_, symObjAddr: 0x278C, symBinAddr: 0x100004610, symSize: 0x1BC }
  - { offset: 0xFC2E, size: 0x8, addend: 0x0, symName: __ZZNSt6vectorIiSaIiEE17_M_realloc_appendIJRKiEEEvDpOT_EN6_GuardC1EPimRS0_, symObjAddr: 0x26E8, symBinAddr: 0x10000456C, symSize: 0x44 }
  - { offset: 0xFC6F, size: 0x8, addend: 0x0, symName: __ZZNSt6vectorIiSaIiEE17_M_realloc_appendIJRKiEEEvDpOT_EN6_GuardD1Ev, symObjAddr: 0x272C, symBinAddr: 0x1000045B0, symSize: 0x60 }
  - { offset: 0xFDCB, size: 0x8, addend: 0x0, symName: __ZNSt12_Vector_baseIiSaIiEE19_M_get_Tp_allocatorEv, symObjAddr: 0x26D4, symBinAddr: 0x100004558, symSize: 0x14 }
  - { offset: 0xFDF3, size: 0x8, addend: 0x0, symName: __ZNSt12_Vector_baseIiSaIiEE13_M_deallocateEPim, symObjAddr: 0x267C, symBinAddr: 0x100004500, symSize: 0x58 }
  - { offset: 0xFE92, size: 0x8, addend: 0x0, symName: __ZNSt15__new_allocatorIiED2Ev, symObjAddr: 0x2668, symBinAddr: 0x1000044EC, symSize: 0x14 }
  - { offset: 0xFED1, size: 0x8, addend: 0x0, symName: __ZNSt12_Vector_baseIiSaIiEE17_Vector_impl_dataC2Ev, symObjAddr: 0x263C, symBinAddr: 0x1000044C0, symSize: 0x2C }
  - { offset: 0xFEF1, size: 0x8, addend: 0x0, symName: __ZSt22__uninitialized_copy_aIPSt6vectorIiSaIiEES3_S2_ET0_T_S5_S4_RSaIT1_E, symObjAddr: 0x260C, symBinAddr: 0x100004490, symSize: 0x30 }
  - { offset: 0xFF5C, size: 0x8, addend: 0x0, symName: __ZSt4copyIPSt6vectorIiSaIiEES3_ET0_T_S5_S4_, symObjAddr: 0x25C4, symBinAddr: 0x100004448, symSize: 0x48 }
  - { offset: 0xFFEE, size: 0x8, addend: 0x0, symName: __ZSt4copyIN9__gnu_cxx17__normal_iteratorIPKSt6vectorIiSaIiEES2_IS4_SaIS4_EEEENS1_IPS4_S8_EEET0_T_SD_SC_, symObjAddr: 0x257C, symBinAddr: 0x100004400, symSize: 0x48 }
  - { offset: 0x10084, size: 0x8, addend: 0x0, symName: __ZNSt6vectorIS_IiSaIiEESaIS1_EE20_M_allocate_and_copyIN9__gnu_cxx17__normal_iteratorIPKS1_S3_EEEEPS1_mT_SB_, symObjAddr: 0x24F8, symBinAddr: 0x10000437C, symSize: 0x84 }
  - { offset: 0x100F5, size: 0x8, addend: 0x0, symName: __ZNKSt6vectorIS_IiSaIiEESaIS1_EE3endEv, symObjAddr: 0x24D0, symBinAddr: 0x100004354, symSize: 0x28 }
  - { offset: 0x1011D, size: 0x8, addend: 0x0, symName: __ZNKSt6vectorIS_IiSaIiEESaIS1_EE5beginEv, symObjAddr: 0x24AC, symBinAddr: 0x100004330, symSize: 0x24 }
  - { offset: 0x10145, size: 0x8, addend: 0x0, symName: __ZNKSt6vectorIS_IiSaIiEESaIS1_EE8capacityEv, symObjAddr: 0x2478, symBinAddr: 0x1000042FC, symSize: 0x34 }
  - { offset: 0x1016D, size: 0x8, addend: 0x0, symName: __ZNKSt6vectorIS_IiSaIiEESaIS1_EE4sizeEv, symObjAddr: 0x2444, symBinAddr: 0x1000042C8, symSize: 0x34 }
  - { offset: 0x101BF, size: 0x8, addend: 0x0, symName: __ZNSt12_Vector_baseISt6vectorIiSaIiEESaIS2_EE13_M_deallocateEPS2_m, symObjAddr: 0x23EC, symBinAddr: 0x100004270, symSize: 0x58 }
  - { offset: 0x10239, size: 0x8, addend: 0x0, symName: __ZNSt6vectorIS_IiSaIiEESaIS1_EE5clearEv, symObjAddr: 0x23C0, symBinAddr: 0x100004244, symSize: 0x2C }
  - { offset: 0x10272, size: 0x8, addend: 0x0, symName: __ZNKSt12_Vector_baseISt6vectorIiSaIiEESaIS2_EE19_M_get_Tp_allocatorEv, symObjAddr: 0x23AC, symBinAddr: 0x100004230, symSize: 0x14 }
  - { offset: 0x1029A, size: 0x8, addend: 0x0, symName: __ZNSt12_Vector_baseISt6vectorIiSaIiEESaIS2_EE19_M_get_Tp_allocatorEv, symObjAddr: 0x2398, symBinAddr: 0x10000421C, symSize: 0x14 }
  - { offset: 0x102C2, size: 0x8, addend: 0x0, symName: __ZNK9__gnu_cxx17__normal_iteratorIPKiSt6vectorIiSaIiEEEdeEv, symObjAddr: 0x2380, symBinAddr: 0x100004204, symSize: 0x18 }
  - { offset: 0x102EA, size: 0x8, addend: 0x0, symName: __ZN9__gnu_cxx17__normal_iteratorIPKiSt6vectorIiSaIiEEEppEv, symObjAddr: 0x2358, symBinAddr: 0x1000041DC, symSize: 0x28 }
  - { offset: 0x10314, size: 0x8, addend: 0x0, symName: __ZN9__gnu_cxxneIPKiSt6vectorIiSaIiEEEEbRKNS_17__normal_iteratorIT_T0_EESB_, symObjAddr: 0x2314, symBinAddr: 0x100004198, symSize: 0x44 }
  - { offset: 0x10362, size: 0x8, addend: 0x0, symName: __ZNKSt6vectorIiSaIiEE3endEv, symObjAddr: 0x22EC, symBinAddr: 0x100004170, symSize: 0x28 }
  - { offset: 0x1038A, size: 0x8, addend: 0x0, symName: __ZNKSt6vectorIiSaIiEE5beginEv, symObjAddr: 0x22C8, symBinAddr: 0x10000414C, symSize: 0x24 }
  - { offset: 0x103B2, size: 0x8, addend: 0x0, symName: __ZNK9__gnu_cxx17__normal_iteratorIPSt6vectorIiSaIiEES1_IS3_SaIS3_EEEdeEv, symObjAddr: 0x22B0, symBinAddr: 0x100004134, symSize: 0x18 }
  - { offset: 0x103DA, size: 0x8, addend: 0x0, symName: __ZN9__gnu_cxx17__normal_iteratorIPSt6vectorIiSaIiEES1_IS3_SaIS3_EEEppEv, symObjAddr: 0x2288, symBinAddr: 0x10000410C, symSize: 0x28 }
  - { offset: 0x10404, size: 0x8, addend: 0x0, symName: __ZN9__gnu_cxxneIPSt6vectorIiSaIiEES1_IS3_SaIS3_EEEEbRKNS_17__normal_iteratorIT_T0_EESC_, symObjAddr: 0x2244, symBinAddr: 0x1000040C8, symSize: 0x44 }
  - { offset: 0x10452, size: 0x8, addend: 0x0, symName: __ZNSt6vectorIS_IiSaIiEESaIS1_EE3endEv, symObjAddr: 0x221C, symBinAddr: 0x1000040A0, symSize: 0x28 }
  - { offset: 0x1047A, size: 0x8, addend: 0x0, symName: __ZNSt6vectorIS_IiSaIiEESaIS1_EE5beginEv, symObjAddr: 0x21F8, symBinAddr: 0x10000407C, symSize: 0x24 }
  - { offset: 0x104A2, size: 0x8, addend: 0x0, symName: __ZNKSt6vectorIS_IiSaIiEESaIS1_EE5emptyEv, symObjAddr: 0x21C0, symBinAddr: 0x100004044, symSize: 0x38 }
  - { offset: 0x104FF, size: 0x8, addend: 0x0, symName: __ZNSt6vectorIiSaIiEEC1EmRKS0_, symObjAddr: 0x2158, symBinAddr: 0x100003FDC, symSize: 0x68 }
  - { offset: 0x1055B, size: 0x8, addend: 0x0, symName: __ZNSt6vectorIS_IiSaIiEESaIS1_EEC1ERKS3_, symObjAddr: 0x2044, symBinAddr: 0x100003EC8, symSize: 0x114 }
  - { offset: 0x106A1, size: 0x8, addend: 0x0, symName: __ZNSt6vectorIS_IiSaIiEESaIS1_EEC1EmRKS1_RKS2_, symObjAddr: 0x1FD4, symBinAddr: 0x100003E58, symSize: 0x70 }
  - { offset: 0x10735, size: 0x8, addend: 0x0, symName: __ZNSt6vectorIiSaIiEEC1EmRKiRKS0_, symObjAddr: 0x1F64, symBinAddr: 0x100003DE8, symSize: 0x70 }
  - { offset: 0x107AC, size: 0x8, addend: 0x0, symName: __ZNSt6vectorIS_IiSaIiEESaIS1_EED1Ev, symObjAddr: 0x1F08, symBinAddr: 0x100003D8C, symSize: 0x5C }
  - { offset: 0x10827, size: 0x8, addend: 0x0, symName: __ZNSt12_Vector_baseISt6vectorIiSaIiEESaIS2_EED2Ev, symObjAddr: 0x1EAC, symBinAddr: 0x100003D30, symSize: 0x5C }
  - { offset: 0x10886, size: 0x8, addend: 0x0, symName: __ZNSt12_Vector_baseISt6vectorIiSaIiEESaIS2_EE12_Vector_implC1Ev, symObjAddr: 0x1E74, symBinAddr: 0x100003CF8, symSize: 0x38 }
  - { offset: 0x10914, size: 0x8, addend: 0x0, symName: __ZNSt6vectorIiSaIiEEC1ERKS1_, symObjAddr: 0x1D60, symBinAddr: 0x100003BE4, symSize: 0x114 }
  - { offset: 0x10A14, size: 0x8, addend: 0x0, symName: __ZSt16next_permutationISt13_Bit_iteratorEbT_S1_, symObjAddr: 0x1D0C, symBinAddr: 0x100003B90, symSize: 0x54 }
  - { offset: 0x10A59, size: 0x8, addend: 0x0, symName: __ZNSt6vectorIbSaIbEE5beginEv, symObjAddr: 0x1CBC, symBinAddr: 0x100003B40, symSize: 0x50 }
  - { offset: 0x10A81, size: 0x8, addend: 0x0, symName: __ZNSt6vectorIbSaIbEEixEm, symObjAddr: 0x1C8C, symBinAddr: 0x100003B10, symSize: 0x30 }
  - { offset: 0x10AB5, size: 0x8, addend: 0x0, symName: __ZSt4fillISt13_Bit_iteratorbEvT_S1_RKT0_, symObjAddr: 0x1C3C, symBinAddr: 0x100003AC0, symSize: 0x50 }
  - { offset: 0x10B13, size: 0x8, addend: 0x0, symName: __ZNSt6vectorIbSaIbEE3endEv, symObjAddr: 0x1C04, symBinAddr: 0x100003A88, symSize: 0x38 }
  - { offset: 0x10B60, size: 0x8, addend: 0x0, symName: __ZNSt6vectorIbSaIbEED1Ev, symObjAddr: 0x1BE4, symBinAddr: 0x100003A68, symSize: 0x20 }
  - { offset: 0x10BC6, size: 0x8, addend: 0x0, symName: __ZNSt6vectorIbSaIbEEC1EmRKbRKS0_, symObjAddr: 0x1B78, symBinAddr: 0x1000039FC, symSize: 0x6C }
  - { offset: 0x10C38, size: 0x8, addend: 0x0, symName: __ZNKSt6vectorIiSaIiEE4sizeEv, symObjAddr: 0x1B50, symBinAddr: 0x1000039D4, symSize: 0x28 }
  - { offset: 0x10C60, size: 0x8, addend: 0x0, symName: __ZNSt6vectorIiSaIiEE9push_backERKi, symObjAddr: 0x1A88, symBinAddr: 0x10000390C, symSize: 0xC8 }
  - { offset: 0x10CFC, size: 0x8, addend: 0x0, symName: __ZNSt6vectorIS_IiSaIiEESaIS1_EEixEm, symObjAddr: 0x1A54, symBinAddr: 0x1000038D8, symSize: 0x34 }
  - { offset: 0x10D59, size: 0x8, addend: 0x0, symName: __ZNSt6vectorIiSaIiEED1Ev, symObjAddr: 0x19F8, symBinAddr: 0x10000387C, symSize: 0x5C }
  - { offset: 0x10DD4, size: 0x8, addend: 0x0, symName: __ZNSt12_Vector_baseIiSaIiEED2Ev, symObjAddr: 0x19A8, symBinAddr: 0x10000382C, symSize: 0x50 }
  - { offset: 0x10E33, size: 0x8, addend: 0x0, symName: __ZNSt12_Vector_baseIiSaIiEE12_Vector_implC1Ev, symObjAddr: 0x1970, symBinAddr: 0x1000037F4, symSize: 0x38 }
  - { offset: 0x10E99, size: 0x8, addend: 0x0, symName: __ZNSt6vectorIiSaIiEEixEm, symObjAddr: 0x1948, symBinAddr: 0x1000037CC, symSize: 0x28 }
  - { offset: 0x10ED1, size: 0x8, addend: 0x0, symName: __ZNSt6vectorIS_IiSaIiEESaIS1_EEaSERKS3_, symObjAddr: 0x15B0, symBinAddr: 0x100003434, symSize: 0x398 }
  - { offset: 0x1103C, size: 0x8, addend: 0x0, symName: __ZSt11__addressofIKSt6vectorIS0_IiSaIiEESaIS2_EEEPT_RS6_, symObjAddr: 0x159C, symBinAddr: 0x100003420, symSize: 0x14 }
  - { offset: 0x11074, size: 0x8, addend: 0x0, symName: _main, symObjAddr: 0x12C4, symBinAddr: 0x100003148, symSize: 0x2D8 }
  - { offset: 0x112DA, size: 0x8, addend: 0x0, symName: __ZN23OptimizedNonogramSolverD1Ev, symObjAddr: 0x1288, symBinAddr: 0x10000310C, symSize: 0x3C }
  - { offset: 0x112FE, size: 0x8, addend: 0x0, symName: __ZN23OptimizedNonogramSolver5solveEv, symObjAddr: 0x1070, symBinAddr: 0x100002EF4, symSize: 0x218 }
  - { offset: 0x11591, size: 0x8, addend: 0x0, symName: __ZN23OptimizedNonogramSolverC1EiRKSt6vectorIiSaIiEES4_, symObjAddr: 0xFF4, symBinAddr: 0x100002E78, symSize: 0x7C }
  - { offset: 0x115E8, size: 0x8, addend: 0x0, symName: __ZNSt6vectorIS_IiSaIiEESaIS1_EEC1Ev, symObjAddr: 0xFD4, symBinAddr: 0x100002E58, symSize: 0x20 }
  - { offset: 0x11627, size: 0x8, addend: 0x0, symName: __ZNSt12_Vector_baseISt6vectorIiSaIiEESaIS2_EEC2Ev, symObjAddr: 0xFB4, symBinAddr: 0x100002E38, symSize: 0x20 }
  - { offset: 0x11673, size: 0x8, addend: 0x0, symName: __ZNSt12_Vector_baseISt6vectorIiSaIiEESaIS2_EE12_Vector_implD1Ev, symObjAddr: 0xF88, symBinAddr: 0x100002E0C, symSize: 0x2C }
  - { offset: 0x116B8, size: 0x8, addend: 0x0, symName: __ZN23OptimizedNonogramSolver9backtrackEiRSt6vectorIS0_IiSaIiEESaIS2_EERS2_S6_, symObjAddr: 0xA10, symBinAddr: 0x100002894, symSize: 0x578 }
  - { offset: 0x118F2, size: 0x8, addend: 0x0, symName: __ZNSt6vectorIiSaIiEEC1Ev, symObjAddr: 0x9F0, symBinAddr: 0x100002874, symSize: 0x20 }
  - { offset: 0x11931, size: 0x8, addend: 0x0, symName: __ZNSt12_Vector_baseIiSaIiEEC2Ev, symObjAddr: 0x9D0, symBinAddr: 0x100002854, symSize: 0x20 }
  - { offset: 0x1197D, size: 0x8, addend: 0x0, symName: __ZNSt12_Vector_baseIiSaIiEE12_Vector_implD1Ev, symObjAddr: 0x9A4, symBinAddr: 0x100002828, symSize: 0x2C }
  - { offset: 0x119BE, size: 0x8, addend: 0x0, symName: __ZSt9__fill_a1St13_Bit_iteratorS_RKb, symObjAddr: 0x894, symBinAddr: 0x100002718, symSize: 0x110 }
  - { offset: 0x11A28, size: 0x8, addend: 0x0, symName: __ZSt16__fill_bvector_nPmmb, symObjAddr: 0x83C, symBinAddr: 0x1000026C0, symSize: 0x58 }
  - { offset: 0x11A70, size: 0x8, addend: 0x0, symName: __ZSt14__fill_bvectorPmjjb, symObjAddr: 0x798, symBinAddr: 0x10000261C, symSize: 0xA4 }
  - { offset: 0x11AFE, size: 0x8, addend: 0x0, symName: __ZStmiRKSt13_Bit_iteratorl, symObjAddr: 0x740, symBinAddr: 0x1000025C4, symSize: 0x58 }
  - { offset: 0x11B46, size: 0x8, addend: 0x0, symName: __ZStplRKSt13_Bit_iteratorl, symObjAddr: 0x6E8, symBinAddr: 0x10000256C, symSize: 0x58 }
  - { offset: 0x11B92, size: 0x8, addend: 0x0, symName: __ZNKSt13_Bit_iteratorixEl, symObjAddr: 0x6B8, symBinAddr: 0x10000253C, symSize: 0x30 }
  - { offset: 0x11BCA, size: 0x8, addend: 0x0, symName: __ZNSt13_Bit_iteratormIEl, symObjAddr: 0x688, symBinAddr: 0x10000250C, symSize: 0x30 }
  - { offset: 0x11C02, size: 0x8, addend: 0x0, symName: __ZNSt13_Bit_iteratorpLEl, symObjAddr: 0x660, symBinAddr: 0x1000024E4, symSize: 0x28 }
  - { offset: 0x11C3A, size: 0x8, addend: 0x0, symName: __ZNSt13_Bit_iteratormmEv, symObjAddr: 0x640, symBinAddr: 0x1000024C4, symSize: 0x20 }
  - { offset: 0x11C62, size: 0x8, addend: 0x0, symName: __ZNSt13_Bit_iteratorppEv, symObjAddr: 0x620, symBinAddr: 0x1000024A4, symSize: 0x20 }
  - { offset: 0x11C8A, size: 0x8, addend: 0x0, symName: __ZNKSt13_Bit_iteratordeEv, symObjAddr: 0x5B8, symBinAddr: 0x10000243C, symSize: 0x68 }
  - { offset: 0x11D12, size: 0x8, addend: 0x0, symName: __ZNSt13_Bit_iteratorC1EPmj, symObjAddr: 0x588, symBinAddr: 0x10000240C, symSize: 0x30 }
  - { offset: 0x11D61, size: 0x8, addend: 0x0, symName: __ZNSt13_Bit_iteratorC1Ev, symObjAddr: 0x560, symBinAddr: 0x1000023E4, symSize: 0x28 }
  - { offset: 0x11D87, size: 0x8, addend: 0x0, symName: __ZStltRKSt18_Bit_iterator_baseS1_, symObjAddr: 0x4A8, symBinAddr: 0x10000232C, symSize: 0xB8 }
  - { offset: 0x11E15, size: 0x8, addend: 0x0, symName: __ZSteqRKSt18_Bit_iterator_baseS1_, symObjAddr: 0x408, symBinAddr: 0x10000228C, symSize: 0xA0 }
  - { offset: 0x11EA3, size: 0x8, addend: 0x0, symName: __ZNSt18_Bit_iterator_base7_M_incrEl, symObjAddr: 0x330, symBinAddr: 0x1000021B4, symSize: 0xD8 }
  - { offset: 0x11F13, size: 0x8, addend: 0x0, symName: __ZNSt18_Bit_iterator_base12_M_bump_downEv, symObjAddr: 0x2A8, symBinAddr: 0x10000212C, symSize: 0x88 }
  - { offset: 0x11F65, size: 0x8, addend: 0x0, symName: __ZNSt18_Bit_iterator_base10_M_bump_upEv, symObjAddr: 0x224, symBinAddr: 0x1000020A8, symSize: 0x84 }
  - { offset: 0x11FEC, size: 0x8, addend: 0x0, symName: __ZNSt18_Bit_iterator_baseC2EPmj, symObjAddr: 0x1F0, symBinAddr: 0x100002074, symSize: 0x34 }
  - { offset: 0x1203F, size: 0x8, addend: 0x0, symName: __ZSt4swapSt14_Bit_referenceS_, symObjAddr: 0x1B0, symBinAddr: 0x100002034, symSize: 0x40 }
  - { offset: 0x12088, size: 0x8, addend: 0x0, symName: __ZNKSt14_Bit_referenceltERKS_, symObjAddr: 0x15C, symBinAddr: 0x100001FE0, symSize: 0x54 }
  - { offset: 0x120BF, size: 0x8, addend: 0x0, symName: __ZNSt14_Bit_referenceaSERKS_, symObjAddr: 0x130, symBinAddr: 0x100001FB4, symSize: 0x2C }
  - { offset: 0x120F6, size: 0x8, addend: 0x0, symName: __ZNSt14_Bit_referenceaSEb, symObjAddr: 0xB4, symBinAddr: 0x100001F38, symSize: 0x7C }
  - { offset: 0x1212D, size: 0x8, addend: 0x0, symName: __ZNKSt14_Bit_referencecvbEv, symObjAddr: 0x80, symBinAddr: 0x100001F04, symSize: 0x34 }
  - { offset: 0x1218A, size: 0x8, addend: 0x0, symName: __ZNSt14_Bit_referenceC1EPmm, symObjAddr: 0x4C, symBinAddr: 0x100001ED0, symSize: 0x34 }
  - { offset: 0x121BA, size: 0x8, addend: 0x0, symName: __ZSt17__size_to_integerm, symObjAddr: 0x38, symBinAddr: 0x100001EBC, symSize: 0x14 }
  - { offset: 0x121E3, size: 0x8, addend: 0x0, symName: __ZN9__gnu_cxx5__ops16__iter_less_iterEv, symObjAddr: 0x30, symBinAddr: 0x100001EB4, symSize: 0x8 }
  - { offset: 0x12202, size: 0x8, addend: 0x0, symName: __ZdlPvS_, symObjAddr: 0x18, symBinAddr: 0x100001E9C, symSize: 0x18 }
  - { offset: 0x12236, size: 0x8, addend: 0x0, symName: __ZnwmPv, symObjAddr: 0x0, symBinAddr: 0x100001E84, symSize: 0x18 }
...
